
/home/fermat/ics2018/nexus-am/apps/litenes/build/litenes-x86-nemu:     file format elf32-i386


Disassembly of section .text:

00100000 <_start>:
  100000:	bd 00 00 00 00       	mov    $0x0,%ebp
  100005:	bc 00 7c 00 00       	mov    $0x7c00,%esp
  10000a:	e8 29 00 00 00       	call   100038 <_trm_init>
  10000f:	90                   	nop

00100010 <_putc>:
  100010:	55                   	push   %ebp
  100011:	89 e5                	mov    %esp,%ebp
  100013:	8b 4d 08             	mov    0x8(%ebp),%ecx
  100016:	ba fd 03 00 00       	mov    $0x3fd,%edx
  10001b:	90                   	nop
  10001c:	ec                   	in     (%dx),%al
  10001d:	a8 20                	test   $0x20,%al
  10001f:	74 fb                	je     10001c <_putc+0xc>
  100021:	ba f8 03 00 00       	mov    $0x3f8,%edx
  100026:	88 c8                	mov    %cl,%al
  100028:	ee                   	out    %al,(%dx)
  100029:	5d                   	pop    %ebp
  10002a:	c3                   	ret    
  10002b:	90                   	nop

0010002c <_halt>:
  10002c:	55                   	push   %ebp
  10002d:	89 e5                	mov    %esp,%ebp
  10002f:	8b 45 08             	mov    0x8(%ebp),%eax
  100032:	d6                   	(bad)  
  100033:	eb fe                	jmp    100033 <_halt+0x7>
  100035:	66 90                	xchg   %ax,%ax
  100037:	90                   	nop

00100038 <_trm_init>:
  100038:	55                   	push   %ebp
  100039:	89 e5                	mov    %esp,%ebp
  10003b:	83 ec 08             	sub    $0x8,%esp
  10003e:	e8 ed 67 00 00       	call   106830 <main>
  100043:	d6                   	(bad)  
  100044:	eb fe                	jmp    100044 <_trm_init+0xc>
  100046:	66 90                	xchg   %ax,%ax

00100048 <ppu_base_nametable_address>:
  100048:	55                   	push   %ebp
  100049:	89 e5                	mov    %esp,%ebp
  10004b:	a0 20 11 2b 00       	mov    0x2b1120,%al
  100050:	83 e0 03             	and    $0x3,%eax
  100053:	66 8b 84 00 64 75 10 	mov    0x107564(%eax,%eax,1),%ax
  10005a:	00 
  10005b:	5d                   	pop    %ebp
  10005c:	c3                   	ret    
  10005d:	8d 76 00             	lea    0x0(%esi),%esi

00100060 <ppu_vram_address_increment>:
  100060:	55                   	push   %ebp
  100061:	89 e5                	mov    %esp,%ebp
  100063:	a0 20 11 2b 00       	mov    0x2b1120,%al
  100068:	83 e0 04             	and    $0x4,%eax
  10006b:	3c 01                	cmp    $0x1,%al
  10006d:	19 c0                	sbb    %eax,%eax
  10006f:	83 e0 e1             	and    $0xffffffe1,%eax
  100072:	83 c0 20             	add    $0x20,%eax
  100075:	5d                   	pop    %ebp
  100076:	c3                   	ret    
  100077:	90                   	nop

00100078 <ppu_sprite_pattern_table_address>:
  100078:	55                   	push   %ebp
  100079:	89 e5                	mov    %esp,%ebp
  10007b:	31 c0                	xor    %eax,%eax
  10007d:	f6 05 20 11 2b 00 08 	testb  $0x8,0x2b1120
  100084:	0f 95 c0             	setne  %al
  100087:	c1 e0 0c             	shl    $0xc,%eax
  10008a:	5d                   	pop    %ebp
  10008b:	c3                   	ret    

0010008c <ppu_background_pattern_table_address>:
  10008c:	55                   	push   %ebp
  10008d:	89 e5                	mov    %esp,%ebp
  10008f:	31 c0                	xor    %eax,%eax
  100091:	f6 05 20 11 2b 00 10 	testb  $0x10,0x2b1120
  100098:	0f 95 c0             	setne  %al
  10009b:	c1 e0 0c             	shl    $0xc,%eax
  10009e:	5d                   	pop    %ebp
  10009f:	c3                   	ret    

001000a0 <ppu_sprite_height>:
  1000a0:	55                   	push   %ebp
  1000a1:	89 e5                	mov    %esp,%ebp
  1000a3:	a0 20 11 2b 00       	mov    0x2b1120,%al
  1000a8:	83 e0 20             	and    $0x20,%eax
  1000ab:	3c 01                	cmp    $0x1,%al
  1000ad:	19 c0                	sbb    %eax,%eax
  1000af:	83 e0 f8             	and    $0xfffffff8,%eax
  1000b2:	83 c0 10             	add    $0x10,%eax
  1000b5:	5d                   	pop    %ebp
  1000b6:	c3                   	ret    
  1000b7:	90                   	nop

001000b8 <ppu_generates_nmi>:
  1000b8:	55                   	push   %ebp
  1000b9:	89 e5                	mov    %esp,%ebp
  1000bb:	a0 20 11 2b 00       	mov    0x2b1120,%al
  1000c0:	83 e0 80             	and    $0xffffff80,%eax
  1000c3:	0f b6 c0             	movzbl %al,%eax
  1000c6:	5d                   	pop    %ebp
  1000c7:	c3                   	ret    

001000c8 <ppu_renders_grayscale>:
  1000c8:	55                   	push   %ebp
  1000c9:	89 e5                	mov    %esp,%ebp
  1000cb:	a0 21 11 2b 00       	mov    0x2b1121,%al
  1000d0:	83 e0 01             	and    $0x1,%eax
  1000d3:	5d                   	pop    %ebp
  1000d4:	c3                   	ret    
  1000d5:	8d 76 00             	lea    0x0(%esi),%esi

001000d8 <ppu_shows_background_in_leftmost_8px>:
  1000d8:	55                   	push   %ebp
  1000d9:	89 e5                	mov    %esp,%ebp
  1000db:	a0 21 11 2b 00       	mov    0x2b1121,%al
  1000e0:	83 e0 02             	and    $0x2,%eax
  1000e3:	0f b6 c0             	movzbl %al,%eax
  1000e6:	5d                   	pop    %ebp
  1000e7:	c3                   	ret    

001000e8 <ppu_shows_sprites_in_leftmost_8px>:
  1000e8:	55                   	push   %ebp
  1000e9:	89 e5                	mov    %esp,%ebp
  1000eb:	a0 21 11 2b 00       	mov    0x2b1121,%al
  1000f0:	83 e0 04             	and    $0x4,%eax
  1000f3:	0f b6 c0             	movzbl %al,%eax
  1000f6:	5d                   	pop    %ebp
  1000f7:	c3                   	ret    

001000f8 <ppu_shows_background>:
  1000f8:	55                   	push   %ebp
  1000f9:	89 e5                	mov    %esp,%ebp
  1000fb:	a0 21 11 2b 00       	mov    0x2b1121,%al
  100100:	83 e0 08             	and    $0x8,%eax
  100103:	0f b6 c0             	movzbl %al,%eax
  100106:	5d                   	pop    %ebp
  100107:	c3                   	ret    

00100108 <ppu_shows_sprites>:
  100108:	55                   	push   %ebp
  100109:	89 e5                	mov    %esp,%ebp
  10010b:	a0 21 11 2b 00       	mov    0x2b1121,%al
  100110:	83 e0 10             	and    $0x10,%eax
  100113:	0f b6 c0             	movzbl %al,%eax
  100116:	5d                   	pop    %ebp
  100117:	c3                   	ret    

00100118 <ppu_intensifies_reds>:
  100118:	55                   	push   %ebp
  100119:	89 e5                	mov    %esp,%ebp
  10011b:	a0 21 11 2b 00       	mov    0x2b1121,%al
  100120:	83 e0 20             	and    $0x20,%eax
  100123:	0f b6 c0             	movzbl %al,%eax
  100126:	5d                   	pop    %ebp
  100127:	c3                   	ret    

00100128 <ppu_intensifies_greens>:
  100128:	55                   	push   %ebp
  100129:	89 e5                	mov    %esp,%ebp
  10012b:	a0 21 11 2b 00       	mov    0x2b1121,%al
  100130:	83 e0 40             	and    $0x40,%eax
  100133:	0f b6 c0             	movzbl %al,%eax
  100136:	5d                   	pop    %ebp
  100137:	c3                   	ret    

00100138 <ppu_intensifies_blues>:
  100138:	55                   	push   %ebp
  100139:	89 e5                	mov    %esp,%ebp
  10013b:	a0 21 11 2b 00       	mov    0x2b1121,%al
  100140:	83 e0 80             	and    $0xffffff80,%eax
  100143:	0f b6 c0             	movzbl %al,%eax
  100146:	5d                   	pop    %ebp
  100147:	c3                   	ret    

00100148 <ppu_set_renders_grayscale>:
  100148:	55                   	push   %ebp
  100149:	89 e5                	mov    %esp,%ebp
  10014b:	83 ec 0c             	sub    $0xc,%esp
  10014e:	ff 75 08             	pushl  0x8(%ebp)
  100151:	6a 00                	push   $0x0
  100153:	68 21 11 2b 00       	push   $0x2b1121
  100158:	e8 5b 52 00 00       	call   1053b8 <common_modify_bitb>
  10015d:	83 c4 10             	add    $0x10,%esp
  100160:	c9                   	leave  
  100161:	c3                   	ret    
  100162:	66 90                	xchg   %ax,%ax

00100164 <ppu_set_shows_background_in_leftmost_8px>:
  100164:	55                   	push   %ebp
  100165:	89 e5                	mov    %esp,%ebp
  100167:	83 ec 0c             	sub    $0xc,%esp
  10016a:	ff 75 08             	pushl  0x8(%ebp)
  10016d:	6a 01                	push   $0x1
  10016f:	68 21 11 2b 00       	push   $0x2b1121
  100174:	e8 3f 52 00 00       	call   1053b8 <common_modify_bitb>
  100179:	83 c4 10             	add    $0x10,%esp
  10017c:	c9                   	leave  
  10017d:	c3                   	ret    
  10017e:	66 90                	xchg   %ax,%ax

00100180 <ppu_set_shows_sprites_in_leftmost_8px>:
  100180:	55                   	push   %ebp
  100181:	89 e5                	mov    %esp,%ebp
  100183:	83 ec 0c             	sub    $0xc,%esp
  100186:	ff 75 08             	pushl  0x8(%ebp)
  100189:	6a 02                	push   $0x2
  10018b:	68 21 11 2b 00       	push   $0x2b1121
  100190:	e8 23 52 00 00       	call   1053b8 <common_modify_bitb>
  100195:	83 c4 10             	add    $0x10,%esp
  100198:	c9                   	leave  
  100199:	c3                   	ret    
  10019a:	66 90                	xchg   %ax,%ax

0010019c <ppu_set_shows_background>:
  10019c:	55                   	push   %ebp
  10019d:	89 e5                	mov    %esp,%ebp
  10019f:	83 ec 0c             	sub    $0xc,%esp
  1001a2:	ff 75 08             	pushl  0x8(%ebp)
  1001a5:	6a 03                	push   $0x3
  1001a7:	68 21 11 2b 00       	push   $0x2b1121
  1001ac:	e8 07 52 00 00       	call   1053b8 <common_modify_bitb>
  1001b1:	83 c4 10             	add    $0x10,%esp
  1001b4:	c9                   	leave  
  1001b5:	c3                   	ret    
  1001b6:	66 90                	xchg   %ax,%ax

001001b8 <ppu_set_shows_sprites>:
  1001b8:	55                   	push   %ebp
  1001b9:	89 e5                	mov    %esp,%ebp
  1001bb:	83 ec 0c             	sub    $0xc,%esp
  1001be:	ff 75 08             	pushl  0x8(%ebp)
  1001c1:	6a 04                	push   $0x4
  1001c3:	68 21 11 2b 00       	push   $0x2b1121
  1001c8:	e8 eb 51 00 00       	call   1053b8 <common_modify_bitb>
  1001cd:	83 c4 10             	add    $0x10,%esp
  1001d0:	c9                   	leave  
  1001d1:	c3                   	ret    
  1001d2:	66 90                	xchg   %ax,%ax

001001d4 <ppu_set_intensifies_reds>:
  1001d4:	55                   	push   %ebp
  1001d5:	89 e5                	mov    %esp,%ebp
  1001d7:	83 ec 0c             	sub    $0xc,%esp
  1001da:	ff 75 08             	pushl  0x8(%ebp)
  1001dd:	6a 05                	push   $0x5
  1001df:	68 21 11 2b 00       	push   $0x2b1121
  1001e4:	e8 cf 51 00 00       	call   1053b8 <common_modify_bitb>
  1001e9:	83 c4 10             	add    $0x10,%esp
  1001ec:	c9                   	leave  
  1001ed:	c3                   	ret    
  1001ee:	66 90                	xchg   %ax,%ax

001001f0 <ppu_set_intensifies_greens>:
  1001f0:	55                   	push   %ebp
  1001f1:	89 e5                	mov    %esp,%ebp
  1001f3:	83 ec 0c             	sub    $0xc,%esp
  1001f6:	ff 75 08             	pushl  0x8(%ebp)
  1001f9:	6a 06                	push   $0x6
  1001fb:	68 21 11 2b 00       	push   $0x2b1121
  100200:	e8 b3 51 00 00       	call   1053b8 <common_modify_bitb>
  100205:	83 c4 10             	add    $0x10,%esp
  100208:	c9                   	leave  
  100209:	c3                   	ret    
  10020a:	66 90                	xchg   %ax,%ax

0010020c <ppu_set_intensifies_blues>:
  10020c:	55                   	push   %ebp
  10020d:	89 e5                	mov    %esp,%ebp
  10020f:	83 ec 0c             	sub    $0xc,%esp
  100212:	ff 75 08             	pushl  0x8(%ebp)
  100215:	6a 07                	push   $0x7
  100217:	68 21 11 2b 00       	push   $0x2b1121
  10021c:	e8 97 51 00 00       	call   1053b8 <common_modify_bitb>
  100221:	83 c4 10             	add    $0x10,%esp
  100224:	c9                   	leave  
  100225:	c3                   	ret    
  100226:	66 90                	xchg   %ax,%ax

00100228 <ppu_sprite_overflow>:
  100228:	55                   	push   %ebp
  100229:	89 e5                	mov    %esp,%ebp
  10022b:	a0 22 11 2b 00       	mov    0x2b1122,%al
  100230:	83 e0 20             	and    $0x20,%eax
  100233:	0f b6 c0             	movzbl %al,%eax
  100236:	5d                   	pop    %ebp
  100237:	c3                   	ret    

00100238 <ppu_sprite_0_hit>:
  100238:	55                   	push   %ebp
  100239:	89 e5                	mov    %esp,%ebp
  10023b:	a0 22 11 2b 00       	mov    0x2b1122,%al
  100240:	83 e0 40             	and    $0x40,%eax
  100243:	0f b6 c0             	movzbl %al,%eax
  100246:	5d                   	pop    %ebp
  100247:	c3                   	ret    

00100248 <ppu_in_vblank>:
  100248:	55                   	push   %ebp
  100249:	89 e5                	mov    %esp,%ebp
  10024b:	a0 22 11 2b 00       	mov    0x2b1122,%al
  100250:	83 e0 80             	and    $0xffffff80,%eax
  100253:	0f b6 c0             	movzbl %al,%eax
  100256:	5d                   	pop    %ebp
  100257:	c3                   	ret    

00100258 <ppu_set_sprite_overflow>:
  100258:	55                   	push   %ebp
  100259:	89 e5                	mov    %esp,%ebp
  10025b:	83 ec 0c             	sub    $0xc,%esp
  10025e:	ff 75 08             	pushl  0x8(%ebp)
  100261:	6a 05                	push   $0x5
  100263:	68 22 11 2b 00       	push   $0x2b1122
  100268:	e8 4b 51 00 00       	call   1053b8 <common_modify_bitb>
  10026d:	83 c4 10             	add    $0x10,%esp
  100270:	c9                   	leave  
  100271:	c3                   	ret    
  100272:	66 90                	xchg   %ax,%ax

00100274 <ppu_set_sprite_0_hit>:
  100274:	55                   	push   %ebp
  100275:	89 e5                	mov    %esp,%ebp
  100277:	83 ec 0c             	sub    $0xc,%esp
  10027a:	ff 75 08             	pushl  0x8(%ebp)
  10027d:	6a 06                	push   $0x6
  10027f:	68 22 11 2b 00       	push   $0x2b1122
  100284:	e8 2f 51 00 00       	call   1053b8 <common_modify_bitb>
  100289:	83 c4 10             	add    $0x10,%esp
  10028c:	c9                   	leave  
  10028d:	c3                   	ret    
  10028e:	66 90                	xchg   %ax,%ax

00100290 <ppu_set_in_vblank>:
  100290:	55                   	push   %ebp
  100291:	89 e5                	mov    %esp,%ebp
  100293:	83 ec 0c             	sub    $0xc,%esp
  100296:	ff 75 08             	pushl  0x8(%ebp)
  100299:	6a 07                	push   $0x7
  10029b:	68 22 11 2b 00       	push   $0x2b1122
  1002a0:	e8 13 51 00 00       	call   1053b8 <common_modify_bitb>
  1002a5:	83 c4 10             	add    $0x10,%esp
  1002a8:	c9                   	leave  
  1002a9:	c3                   	ret    
  1002aa:	66 90                	xchg   %ax,%ax

001002ac <ppu_get_real_ram_address>:
  1002ac:	55                   	push   %ebp
  1002ad:	89 e5                	mov    %esp,%ebp
  1002af:	8b 55 08             	mov    0x8(%ebp),%edx
  1002b2:	66 81 fa ff 3e       	cmp    $0x3eff,%dx
  1002b7:	76 0f                	jbe    1002c8 <ppu_get_real_ram_address+0x1c>
  1002b9:	66 81 fa ff 3f       	cmp    $0x3fff,%dx
  1002be:	76 0c                	jbe    1002cc <ppu_get_real_ram_address+0x20>
  1002c0:	b8 ff ff ff ff       	mov    $0xffffffff,%eax
  1002c5:	5d                   	pop    %ebp
  1002c6:	c3                   	ret    
  1002c7:	90                   	nop
  1002c8:	89 d0                	mov    %edx,%eax
  1002ca:	5d                   	pop    %ebp
  1002cb:	c3                   	ret    
  1002cc:	89 d0                	mov    %edx,%eax
  1002ce:	83 e0 1f             	and    $0x1f,%eax
  1002d1:	80 cc 3f             	or     $0x3f,%ah
  1002d4:	83 e2 13             	and    $0x13,%edx
  1002d7:	80 ce 3f             	or     $0x3f,%dh
  1002da:	66 81 fa 10 3f       	cmp    $0x3f10,%dx
  1002df:	75 e4                	jne    1002c5 <ppu_get_real_ram_address+0x19>
  1002e1:	83 e8 10             	sub    $0x10,%eax
  1002e4:	5d                   	pop    %ebp
  1002e5:	c3                   	ret    
  1002e6:	66 90                	xchg   %ax,%ax

001002e8 <ppu_ram_read>:
  1002e8:	55                   	push   %ebp
  1002e9:	89 e5                	mov    %esp,%ebp
  1002eb:	0f b7 45 08          	movzwl 0x8(%ebp),%eax
  1002ef:	0f b7 84 00 60 1f 11 	movzwl 0x111f60(%eax,%eax,1),%eax
  1002f6:	00 
  1002f7:	8a 80 a0 bf 29 00    	mov    0x29bfa0(%eax),%al
  1002fd:	5d                   	pop    %ebp
  1002fe:	c3                   	ret    
  1002ff:	90                   	nop

00100300 <ppu_ram_write>:
  100300:	55                   	push   %ebp
  100301:	89 e5                	mov    %esp,%ebp
  100303:	0f b7 45 08          	movzwl 0x8(%ebp),%eax
  100307:	0f b7 84 00 60 1f 11 	movzwl 0x111f60(%eax,%eax,1),%eax
  10030e:	00 
  10030f:	8b 55 0c             	mov    0xc(%ebp),%edx
  100312:	88 90 a0 bf 29 00    	mov    %dl,0x29bfa0(%eax)
  100318:	5d                   	pop    %ebp
  100319:	c3                   	ret    
  10031a:	66 90                	xchg   %ax,%ax

0010031c <ppu_draw_background_scanline>:
  10031c:	55                   	push   %ebp
  10031d:	89 e5                	mov    %esp,%ebp
  10031f:	57                   	push   %edi
  100320:	56                   	push   %esi
  100321:	53                   	push   %ebx
  100322:	83 ec 44             	sub    $0x44,%esp
  100325:	8b 0d 48 11 2b 00    	mov    0x2b1148,%ecx
  10032b:	8a 1d 20 11 2b 00    	mov    0x2b1120,%bl
  100331:	89 d8                	mov    %ebx,%eax
  100333:	83 e0 03             	and    $0x3,%eax
  100336:	0f b7 94 00 64 75 10 	movzwl 0x107564(%eax,%eax,1),%edx
  10033d:	00 
  10033e:	89 d6                	mov    %edx,%esi
  100340:	89 c8                	mov    %ecx,%eax
  100342:	c1 f8 03             	sar    $0x3,%eax
  100345:	c1 e0 05             	shl    $0x5,%eax
  100348:	01 d0                	add    %edx,%eax
  10034a:	89 45 d8             	mov    %eax,-0x28(%ebp)
  10034d:	8b 55 08             	mov    0x8(%ebp),%edx
  100350:	85 d2                	test   %edx,%edx
  100352:	0f 84 34 02 00 00    	je     10058c <ppu_draw_background_scanline+0x270>
  100358:	81 45 d8 00 04 00 00 	addl   $0x400,-0x28(%ebp)
  10035f:	89 c8                	mov    %ecx,%eax
  100361:	83 e0 07             	and    $0x7,%eax
  100364:	89 45 cc             	mov    %eax,-0x34(%ebp)
  100367:	0f b6 05 28 11 2b 00 	movzbl 0x2b1128,%eax
  10036e:	89 c7                	mov    %eax,%edi
  100370:	89 45 d4             	mov    %eax,-0x2c(%ebp)
  100373:	b8 00 01 00 00       	mov    $0x100,%eax
  100378:	29 f8                	sub    %edi,%eax
  10037a:	89 45 c8             	mov    %eax,-0x38(%ebp)
  10037d:	a1 e8 af 2d 00       	mov    0x2dafe8,%eax
  100382:	bf 03 00 00 00       	mov    $0x3,%edi
  100387:	99                   	cltd   
  100388:	f7 ff                	idiv   %edi
  10038a:	89 55 c0             	mov    %edx,-0x40(%ebp)
  10038d:	c7 45 d0 00 01 00 00 	movl   $0x100,-0x30(%ebp)
  100394:	ba 00 04 00 00       	mov    $0x400,%edx
  100399:	89 c8                	mov    %ecx,%eax
  10039b:	c1 f8 05             	sar    $0x5,%eax
  10039e:	c1 e0 03             	shl    $0x3,%eax
  1003a1:	8d b4 06 bf 03 00 00 	lea    0x3bf(%esi,%eax,1),%esi
  1003a8:	8d 04 16             	lea    (%esi,%edx,1),%eax
  1003ab:	66 89 45 c6          	mov    %ax,-0x3a(%ebp)
  1003af:	a0 21 11 2b 00       	mov    0x2b1121,%al
  1003b4:	d0 e8                	shr    %al
  1003b6:	83 f0 01             	xor    $0x1,%eax
  1003b9:	83 e0 01             	and    $0x1,%eax
  1003bc:	89 c7                	mov    %eax,%edi
  1003be:	89 45 dc             	mov    %eax,-0x24(%ebp)
  1003c1:	89 d8                	mov    %ebx,%eax
  1003c3:	c1 e0 08             	shl    $0x8,%eax
  1003c6:	25 00 10 00 00       	and    $0x1000,%eax
  1003cb:	89 ca                	mov    %ecx,%edx
  1003cd:	c1 e2 05             	shl    $0x5,%edx
  1003d0:	01 ca                	add    %ecx,%edx
  1003d2:	8d 34 d5 00 00 00 00 	lea    0x0(,%edx,8),%esi
  1003d9:	89 75 bc             	mov    %esi,-0x44(%ebp)
  1003dc:	c1 e7 03             	shl    $0x3,%edi
  1003df:	89 ca                	mov    %ecx,%edx
  1003e1:	c1 e2 06             	shl    $0x6,%edx
  1003e4:	01 ca                	add    %ecx,%edx
  1003e6:	8d 1c d5 00 00 00 00 	lea    0x0(,%edx,8),%ebx
  1003ed:	89 5d b8             	mov    %ebx,-0x48(%ebp)
  1003f0:	03 45 cc             	add    -0x34(%ebp),%eax
  1003f3:	66 89 45 c4          	mov    %ax,-0x3c(%ebp)
  1003f7:	83 e1 1f             	and    $0x1f,%ecx
  1003fa:	89 4d b4             	mov    %ecx,-0x4c(%ebp)
  1003fd:	eb 63                	jmp    100462 <ppu_draw_background_scanline+0x146>
  1003ff:	90                   	nop
  100400:	0f b6 c1             	movzbl %cl,%eax
  100403:	89 45 cc             	mov    %eax,-0x34(%ebp)
  100406:	c1 e3 08             	shl    $0x8,%ebx
  100409:	8b 75 cc             	mov    -0x34(%ebp),%esi
  10040c:	01 de                	add    %ebx,%esi
  10040e:	8b 04 f5 60 9f 11 00 	mov    0x119f60(,%esi,8),%eax
  100415:	8b 5d bc             	mov    -0x44(%ebp),%ebx
  100418:	23 84 3b c0 00 2a 00 	and    0x2a00c0(%ebx,%edi,1),%eax
  10041f:	8b 14 f5 64 9f 11 00 	mov    0x119f64(,%esi,8),%edx
  100426:	23 94 3b c4 00 2a 00 	and    0x2a00c4(%ebx,%edi,1),%edx
  10042d:	0b 04 f5 60 9f 19 00 	or     0x199f60(,%esi,8),%eax
  100434:	89 84 3b c0 00 2a 00 	mov    %eax,0x2a00c0(%ebx,%edi,1)
  10043b:	0b 14 f5 64 9f 19 00 	or     0x199f64(,%esi,8),%edx
  100442:	89 94 3b c4 00 2a 00 	mov    %edx,0x2a00c4(%ebx,%edi,1)
  100449:	ff 45 d8             	incl   -0x28(%ebp)
  10044c:	83 45 c8 08          	addl   $0x8,-0x38(%ebp)
  100450:	ff 45 dc             	incl   -0x24(%ebp)
  100453:	8b 45 dc             	mov    -0x24(%ebp),%eax
  100456:	83 c7 08             	add    $0x8,%edi
  100459:	83 f8 20             	cmp    $0x20,%eax
  10045c:	0f 84 22 01 00 00    	je     100584 <ppu_draw_background_scanline+0x268>
  100462:	89 f8                	mov    %edi,%eax
  100464:	2b 45 d4             	sub    -0x2c(%ebp),%eax
  100467:	03 45 d0             	add    -0x30(%ebp),%eax
  10046a:	3d 00 01 00 00       	cmp    $0x100,%eax
  10046f:	7f df                	jg     100450 <ppu_draw_background_scanline+0x134>
  100471:	0f b7 45 d8          	movzwl -0x28(%ebp),%eax
  100475:	0f b7 84 00 60 1f 11 	movzwl 0x111f60(%eax,%eax,1),%eax
  10047c:	00 
  10047d:	0f b6 80 a0 bf 29 00 	movzbl 0x29bfa0(%eax),%eax
  100484:	c1 e0 04             	shl    $0x4,%eax
  100487:	03 45 c4             	add    -0x3c(%ebp),%eax
  10048a:	0f b7 d0             	movzwl %ax,%edx
  10048d:	0f b7 94 12 60 1f 11 	movzwl 0x111f60(%edx,%edx,1),%edx
  100494:	00 
  100495:	8a 8a a0 bf 29 00    	mov    0x29bfa0(%edx),%cl
  10049b:	83 c0 08             	add    $0x8,%eax
  10049e:	0f b7 c0             	movzwl %ax,%eax
  1004a1:	0f b7 84 00 60 1f 11 	movzwl 0x111f60(%eax,%eax,1),%eax
  1004a8:	00 
  1004a9:	0f b6 98 a0 bf 29 00 	movzbl 0x29bfa0(%eax),%ebx
  1004b0:	8b 45 c0             	mov    -0x40(%ebp),%eax
  1004b3:	85 c0                	test   %eax,%eax
  1004b5:	0f 85 45 ff ff ff    	jne    100400 <ppu_draw_background_scanline+0xe4>
  1004bb:	31 c0                	xor    %eax,%eax
  1004bd:	f6 45 dc 03          	testb  $0x3,-0x24(%ebp)
  1004c1:	0f 94 c0             	sete   %al
  1004c4:	66 01 45 c6          	add    %ax,-0x3a(%ebp)
  1004c8:	0f b7 45 c6          	movzwl -0x3a(%ebp),%eax
  1004cc:	0f b7 84 00 60 1f 11 	movzwl 0x111f60(%eax,%eax,1),%eax
  1004d3:	00 
  1004d4:	8a 80 a0 bf 29 00    	mov    0x29bfa0(%eax),%al
  1004da:	83 7d b4 0f          	cmpl   $0xf,-0x4c(%ebp)
  1004de:	7e 03                	jle    1004e3 <ppu_draw_background_scanline+0x1c7>
  1004e0:	c0 e8 04             	shr    $0x4,%al
  1004e3:	83 7d dc 0f          	cmpl   $0xf,-0x24(%ebp)
  1004e7:	7e 03                	jle    1004ec <ppu_draw_background_scanline+0x1d0>
  1004e9:	c0 e8 02             	shr    $0x2,%al
  1004ec:	83 e0 03             	and    $0x3,%eax
  1004ef:	c1 e0 02             	shl    $0x2,%eax
  1004f2:	8d 90 01 3f 00 00    	lea    0x3f01(%eax),%edx
  1004f8:	0f b7 d2             	movzwl %dx,%edx
  1004fb:	0f b7 94 12 60 1f 11 	movzwl 0x111f60(%edx,%edx,1),%edx
  100502:	00 
  100503:	0f b6 92 a0 bf 29 00 	movzbl 0x29bfa0(%edx),%edx
  10050a:	89 55 e4             	mov    %edx,-0x1c(%ebp)
  10050d:	8d 90 02 3f 00 00    	lea    0x3f02(%eax),%edx
  100513:	0f b7 d2             	movzwl %dx,%edx
  100516:	0f b7 94 12 60 1f 11 	movzwl 0x111f60(%edx,%edx,1),%edx
  10051d:	00 
  10051e:	0f b6 92 a0 bf 29 00 	movzbl 0x29bfa0(%edx),%edx
  100525:	89 55 e8             	mov    %edx,-0x18(%ebp)
  100528:	05 03 3f 00 00       	add    $0x3f03,%eax
  10052d:	0f b7 c0             	movzwl %ax,%eax
  100530:	0f b7 84 00 60 1f 11 	movzwl 0x111f60(%eax,%eax,1),%eax
  100537:	00 
  100538:	0f b6 80 a0 bf 29 00 	movzbl 0x29bfa0(%eax),%eax
  10053f:	89 45 ec             	mov    %eax,-0x14(%ebp)
  100542:	0f b6 c1             	movzbl %cl,%eax
  100545:	89 c1                	mov    %eax,%ecx
  100547:	89 45 cc             	mov    %eax,-0x34(%ebp)
  10054a:	89 d8                	mov    %ebx,%eax
  10054c:	c1 e0 08             	shl    $0x8,%eax
  10054f:	8d 8c 01 60 9f 21 00 	lea    0x219f60(%ecx,%eax,1),%ecx
  100556:	8b 75 c8             	mov    -0x38(%ebp),%esi
  100559:	03 75 b8             	add    -0x48(%ebp),%esi
  10055c:	31 c0                	xor    %eax,%eax
  10055e:	66 90                	xchg   %ax,%ax
  100560:	0f b6 11             	movzbl (%ecx),%edx
  100563:	84 d2                	test   %dl,%dl
  100565:	74 0b                	je     100572 <ppu_draw_background_scanline+0x256>
  100567:	8b 54 95 e0          	mov    -0x20(%ebp,%edx,4),%edx
  10056b:	88 94 06 e7 a8 2b 00 	mov    %dl,0x2ba8e7(%esi,%eax,1)
  100572:	40                   	inc    %eax
  100573:	81 c1 00 00 01 00    	add    $0x10000,%ecx
  100579:	83 f8 08             	cmp    $0x8,%eax
  10057c:	75 e2                	jne    100560 <ppu_draw_background_scanline+0x244>
  10057e:	e9 83 fe ff ff       	jmp    100406 <ppu_draw_background_scanline+0xea>
  100583:	90                   	nop
  100584:	83 c4 44             	add    $0x44,%esp
  100587:	5b                   	pop    %ebx
  100588:	5e                   	pop    %esi
  100589:	5f                   	pop    %edi
  10058a:	5d                   	pop    %ebp
  10058b:	c3                   	ret    
  10058c:	89 c8                	mov    %ecx,%eax
  10058e:	83 e0 07             	and    $0x7,%eax
  100591:	89 45 cc             	mov    %eax,-0x34(%ebp)
  100594:	0f b6 05 28 11 2b 00 	movzbl 0x2b1128,%eax
  10059b:	89 45 d4             	mov    %eax,-0x2c(%ebp)
  10059e:	f7 d8                	neg    %eax
  1005a0:	89 45 c8             	mov    %eax,-0x38(%ebp)
  1005a3:	a1 e8 af 2d 00       	mov    0x2dafe8,%eax
  1005a8:	bf 03 00 00 00       	mov    $0x3,%edi
  1005ad:	99                   	cltd   
  1005ae:	f7 ff                	idiv   %edi
  1005b0:	89 55 c0             	mov    %edx,-0x40(%ebp)
  1005b3:	c7 45 d0 00 00 00 00 	movl   $0x0,-0x30(%ebp)
  1005ba:	31 d2                	xor    %edx,%edx
  1005bc:	e9 d8 fd ff ff       	jmp    100399 <ppu_draw_background_scanline+0x7d>
  1005c1:	8d 76 00             	lea    0x0(%esi),%esi

001005c4 <ppu_draw_sprite_scanline>:
  1005c4:	55                   	push   %ebp
  1005c5:	89 e5                	mov    %esp,%ebp
  1005c7:	57                   	push   %edi
  1005c8:	56                   	push   %esi
  1005c9:	53                   	push   %ebx
  1005ca:	83 ec 2c             	sub    $0x2c,%esp
  1005cd:	a1 e8 af 2d 00       	mov    0x2dafe8,%eax
  1005d2:	b9 03 00 00 00       	mov    $0x3,%ecx
  1005d7:	99                   	cltd   
  1005d8:	f7 f9                	idiv   %ecx
  1005da:	89 55 d8             	mov    %edx,-0x28(%ebp)
  1005dd:	31 ff                	xor    %edi,%edi
  1005df:	c7 45 d4 00 00 00 00 	movl   $0x0,-0x2c(%ebp)
  1005e6:	66 90                	xchg   %ax,%ax
  1005e8:	0f b6 9f c0 ff 29 00 	movzbl 0x29ffc0(%edi),%ebx
  1005ef:	8b 35 48 11 2b 00    	mov    0x2b1148,%esi
  1005f5:	39 f3                	cmp    %esi,%ebx
  1005f7:	0f 8f 4a 01 00 00    	jg     100747 <ppu_draw_sprite_scanline+0x183>
  1005fd:	8a 0d 20 11 2b 00    	mov    0x2b1120,%cl
  100603:	88 c8                	mov    %cl,%al
  100605:	83 e0 20             	and    $0x20,%eax
  100608:	3c 01                	cmp    $0x1,%al
  10060a:	19 c0                	sbb    %eax,%eax
  10060c:	83 e0 f8             	and    $0xfffffff8,%eax
  10060f:	8d 44 18 10          	lea    0x10(%eax,%ebx,1),%eax
  100613:	39 c6                	cmp    %eax,%esi
  100615:	0f 8f 2c 01 00 00    	jg     100747 <ppu_draw_sprite_scanline+0x183>
  10061b:	8a 87 c3 ff 29 00    	mov    0x29ffc3(%edi),%al
  100621:	88 45 e0             	mov    %al,-0x20(%ebp)
  100624:	ff 45 d4             	incl   -0x2c(%ebp)
  100627:	8b 45 d4             	mov    -0x2c(%ebp),%eax
  10062a:	83 f8 08             	cmp    $0x8,%eax
  10062d:	0f 8f 79 01 00 00    	jg     1007ac <ppu_draw_sprite_scanline+0x1e8>
  100633:	8a 87 c2 ff 29 00    	mov    0x29ffc2(%edi),%al
  100639:	88 c2                	mov    %al,%dl
  10063b:	83 e2 40             	and    $0x40,%edx
  10063e:	88 55 e7             	mov    %dl,-0x19(%ebp)
  100641:	c1 e1 09             	shl    $0x9,%ecx
  100644:	81 e1 00 10 00 00    	and    $0x1000,%ecx
  10064a:	0f b6 97 c1 ff 29 00 	movzbl 0x29ffc1(%edi),%edx
  100651:	c1 e2 04             	shl    $0x4,%edx
  100654:	01 d1                	add    %edx,%ecx
  100656:	83 e6 07             	and    $0x7,%esi
  100659:	84 c0                	test   %al,%al
  10065b:	0f 89 43 01 00 00    	jns    1007a4 <ppu_draw_sprite_scanline+0x1e0>
  100661:	ba 07 00 00 00       	mov    $0x7,%edx
  100666:	29 f2                	sub    %esi,%edx
  100668:	01 ca                	add    %ecx,%edx
  10066a:	83 e0 03             	and    $0x3,%eax
  10066d:	b9 10 3f 00 00       	mov    $0x3f10,%ecx
  100672:	8d 04 81             	lea    (%ecx,%eax,4),%eax
  100675:	66 89 45 e4          	mov    %ax,-0x1c(%ebp)
  100679:	0f b6 4d e0          	movzbl -0x20(%ebp),%ecx
  10067d:	01 de                	add    %ebx,%esi
  10067f:	89 f0                	mov    %esi,%eax
  100681:	c1 e0 05             	shl    $0x5,%eax
  100684:	01 f0                	add    %esi,%eax
  100686:	c1 e0 03             	shl    $0x3,%eax
  100689:	8d 9c 01 c0 00 2a 00 	lea    0x2a00c0(%ecx,%eax,1),%ebx
  100690:	89 5d cc             	mov    %ebx,-0x34(%ebp)
  100693:	89 f3                	mov    %esi,%ebx
  100695:	c1 e3 06             	shl    $0x6,%ebx
  100698:	01 de                	add    %ebx,%esi
  10069a:	8d 9c f1 e7 a8 2b 00 	lea    0x2ba8e7(%ecx,%esi,8),%ebx
  1006a1:	89 5d d0             	mov    %ebx,-0x30(%ebp)
  1006a4:	0f b7 f2             	movzwl %dx,%esi
  1006a7:	0f b7 b4 36 60 1f 11 	movzwl 0x111f60(%esi,%esi,1),%esi
  1006ae:	00 
  1006af:	0f b6 b6 a0 bf 29 00 	movzbl 0x29bfa0(%esi),%esi
  1006b6:	83 c2 08             	add    $0x8,%edx
  1006b9:	0f b7 d2             	movzwl %dx,%edx
  1006bc:	0f b7 94 12 60 1f 11 	movzwl 0x111f60(%edx,%edx,1),%edx
  1006c3:	00 
  1006c4:	0f b6 92 a0 bf 29 00 	movzbl 0x29bfa0(%edx),%edx
  1006cb:	c1 e2 08             	shl    $0x8,%edx
  1006ce:	89 d3                	mov    %edx,%ebx
  1006d0:	8d 94 32 60 9f 28 00 	lea    0x289f60(%edx,%esi,1),%edx
  1006d7:	8d b4 33 60 9f 21 00 	lea    0x219f60(%ebx,%esi,1),%esi
  1006de:	8d 84 01 c8 00 2a 00 	lea    0x2a00c8(%ecx,%eax,1),%eax
  1006e5:	89 45 e0             	mov    %eax,-0x20(%ebp)
  1006e8:	89 7d dc             	mov    %edi,-0x24(%ebp)
  1006eb:	89 d7                	mov    %edx,%edi
  1006ed:	8b 4d d0             	mov    -0x30(%ebp),%ecx
  1006f0:	8b 5d cc             	mov    -0x34(%ebp),%ebx
  1006f3:	eb 42                	jmp    100737 <ppu_draw_sprite_scanline+0x173>
  1006f5:	8d 76 00             	lea    0x0(%esi),%esi
  1006f8:	0f b6 17             	movzbl (%edi),%edx
  1006fb:	85 d2                	test   %edx,%edx
  1006fd:	74 25                	je     100724 <ppu_draw_sprite_scanline+0x160>
  1006ff:	8b 45 d8             	mov    -0x28(%ebp),%eax
  100702:	85 c0                	test   %eax,%eax
  100704:	74 5a                	je     100760 <ppu_draw_sprite_scanline+0x19c>
  100706:	f6 05 21 11 2b 00 08 	testb  $0x8,0x2b1121
  10070d:	74 15                	je     100724 <ppu_draw_sprite_scanline+0x160>
  10070f:	a1 40 1f 11 00       	mov    0x111f40,%eax
  100714:	85 c0                	test   %eax,%eax
  100716:	75 0c                	jne    100724 <ppu_draw_sprite_scanline+0x160>
  100718:	8b 45 dc             	mov    -0x24(%ebp),%eax
  10071b:	85 c0                	test   %eax,%eax
  10071d:	0f 84 ac 00 00 00    	je     1007cf <ppu_draw_sprite_scanline+0x20b>
  100723:	90                   	nop
  100724:	43                   	inc    %ebx
  100725:	41                   	inc    %ecx
  100726:	81 ef 00 00 01 00    	sub    $0x10000,%edi
  10072c:	81 c6 00 00 01 00    	add    $0x10000,%esi
  100732:	3b 5d e0             	cmp    -0x20(%ebp),%ebx
  100735:	74 0d                	je     100744 <ppu_draw_sprite_scanline+0x180>
  100737:	80 7d e7 00          	cmpb   $0x0,-0x19(%ebp)
  10073b:	75 bb                	jne    1006f8 <ppu_draw_sprite_scanline+0x134>
  10073d:	0f b6 16             	movzbl (%esi),%edx
  100740:	eb b9                	jmp    1006fb <ppu_draw_sprite_scanline+0x137>
  100742:	66 90                	xchg   %ax,%ax
  100744:	8b 7d dc             	mov    -0x24(%ebp),%edi
  100747:	83 c7 04             	add    $0x4,%edi
  10074a:	81 ff 00 01 00 00    	cmp    $0x100,%edi
  100750:	0f 85 92 fe ff ff    	jne    1005e8 <ppu_draw_sprite_scanline+0x24>
  100756:	8d 65 f4             	lea    -0xc(%ebp),%esp
  100759:	5b                   	pop    %ebx
  10075a:	5e                   	pop    %esi
  10075b:	5f                   	pop    %edi
  10075c:	5d                   	pop    %ebp
  10075d:	c3                   	ret    
  10075e:	66 90                	xchg   %ax,%ax
  100760:	89 4d c8             	mov    %ecx,-0x38(%ebp)
  100763:	8b 45 e4             	mov    -0x1c(%ebp),%eax
  100766:	01 d0                	add    %edx,%eax
  100768:	89 55 cc             	mov    %edx,-0x34(%ebp)
  10076b:	0f b7 c0             	movzwl %ax,%eax
  10076e:	0f b7 84 00 60 1f 11 	movzwl 0x111f60(%eax,%eax,1),%eax
  100775:	00 
  100776:	0f b6 80 a0 bf 29 00 	movzbl 0x29bfa0(%eax),%eax
  10077d:	83 ec 08             	sub    $0x8,%esp
  100780:	88 45 d0             	mov    %al,-0x30(%ebp)
  100783:	50                   	push   %eax
  100784:	68 40 75 10 00       	push   $0x107540
  100789:	e8 fa 68 00 00       	call   107088 <my_printf>
  10078e:	83 c4 10             	add    $0x10,%esp
  100791:	8a 45 d0             	mov    -0x30(%ebp),%al
  100794:	8b 55 cc             	mov    -0x34(%ebp),%edx
  100797:	8b 4d c8             	mov    -0x38(%ebp),%ecx
  10079a:	88 01                	mov    %al,(%ecx)
  10079c:	e9 65 ff ff ff       	jmp    100706 <ppu_draw_sprite_scanline+0x142>
  1007a1:	8d 76 00             	lea    0x0(%esi),%esi
  1007a4:	89 f2                	mov    %esi,%edx
  1007a6:	e9 bd fe ff ff       	jmp    100668 <ppu_draw_sprite_scanline+0xa4>
  1007ab:	90                   	nop
  1007ac:	56                   	push   %esi
  1007ad:	6a 01                	push   $0x1
  1007af:	6a 05                	push   $0x5
  1007b1:	68 22 11 2b 00       	push   $0x2b1122
  1007b6:	e8 fd 4b 00 00       	call   1053b8 <common_modify_bitb>
  1007bb:	8a 0d 20 11 2b 00    	mov    0x2b1120,%cl
  1007c1:	8b 35 48 11 2b 00    	mov    0x2b1148,%esi
  1007c7:	83 c4 10             	add    $0x10,%esp
  1007ca:	e9 64 fe ff ff       	jmp    100633 <ppu_draw_sprite_scanline+0x6f>
  1007cf:	0f b6 03             	movzbl (%ebx),%eax
  1007d2:	39 c2                	cmp    %eax,%edx
  1007d4:	0f 85 4a ff ff ff    	jne    100724 <ppu_draw_sprite_scanline+0x160>
  1007da:	89 4d d0             	mov    %ecx,-0x30(%ebp)
  1007dd:	50                   	push   %eax
  1007de:	6a 01                	push   $0x1
  1007e0:	6a 06                	push   $0x6
  1007e2:	68 22 11 2b 00       	push   $0x2b1122
  1007e7:	e8 cc 4b 00 00       	call   1053b8 <common_modify_bitb>
  1007ec:	c7 05 40 1f 11 00 01 	movl   $0x1,0x111f40
  1007f3:	00 00 00 
  1007f6:	83 c4 10             	add    $0x10,%esp
  1007f9:	8b 4d d0             	mov    -0x30(%ebp),%ecx
  1007fc:	e9 23 ff ff ff       	jmp    100724 <ppu_draw_sprite_scanline+0x160>
  100801:	8d 76 00             	lea    0x0(%esi),%esi

00100804 <ppu_cycle>:
  100804:	55                   	push   %ebp
  100805:	89 e5                	mov    %esp,%ebp
  100807:	83 ec 08             	sub    $0x8,%esp
  10080a:	8b 0d 38 11 2b 00    	mov    0x2b1138,%ecx
  100810:	85 c9                	test   %ecx,%ecx
  100812:	74 28                	je     10083c <ppu_cycle+0x38>
  100814:	ff 05 48 11 2b 00    	incl   0x2b1148
  10081a:	a0 21 11 2b 00       	mov    0x2b1121,%al
  10081f:	a8 08                	test   $0x8,%al
  100821:	75 39                	jne    10085c <ppu_cycle+0x58>
  100823:	a8 10                	test   $0x10,%al
  100825:	75 2d                	jne    100854 <ppu_cycle+0x50>
  100827:	a1 48 11 2b 00       	mov    0x2b1148,%eax
  10082c:	3d f1 00 00 00       	cmp    $0xf1,%eax
  100831:	74 75                	je     1008a8 <ppu_cycle+0xa4>
  100833:	3d 06 01 00 00       	cmp    $0x106,%eax
  100838:	74 42                	je     10087c <ppu_cycle+0x78>
  10083a:	c9                   	leave  
  10083b:	c3                   	ret    
  10083c:	e8 3f 4a 00 00       	call   105280 <cpu_clock>
  100841:	3d da 73 00 00       	cmp    $0x73da,%eax
  100846:	76 cc                	jbe    100814 <ppu_cycle+0x10>
  100848:	c7 05 38 11 2b 00 01 	movl   $0x1,0x2b1138
  10084f:	00 00 00 
  100852:	eb c0                	jmp    100814 <ppu_cycle+0x10>
  100854:	e8 6b fd ff ff       	call   1005c4 <ppu_draw_sprite_scanline>
  100859:	eb cc                	jmp    100827 <ppu_cycle+0x23>
  10085b:	90                   	nop
  10085c:	83 ec 0c             	sub    $0xc,%esp
  10085f:	6a 00                	push   $0x0
  100861:	e8 b6 fa ff ff       	call   10031c <ppu_draw_background_scanline>
  100866:	c7 04 24 01 00 00 00 	movl   $0x1,(%esp)
  10086d:	e8 aa fa ff ff       	call   10031c <ppu_draw_background_scanline>
  100872:	a0 21 11 2b 00       	mov    0x2b1121,%al
  100877:	83 c4 10             	add    $0x10,%esp
  10087a:	eb a7                	jmp    100823 <ppu_cycle+0x1f>
  10087c:	c7 05 48 11 2b 00 ff 	movl   $0xffffffff,0x2b1148
  100883:	ff ff ff 
  100886:	c7 05 40 1f 11 00 00 	movl   $0x0,0x111f40
  10088d:	00 00 00 
  100890:	50                   	push   %eax
  100891:	6a 00                	push   $0x0
  100893:	6a 07                	push   $0x7
  100895:	68 22 11 2b 00       	push   $0x2b1122
  10089a:	e8 19 4b 00 00       	call   1053b8 <common_modify_bitb>
  10089f:	83 c4 10             	add    $0x10,%esp
  1008a2:	c9                   	leave  
  1008a3:	e9 10 5e 00 00       	jmp    1066b8 <fce_update_screen>
  1008a8:	52                   	push   %edx
  1008a9:	6a 01                	push   $0x1
  1008ab:	6a 07                	push   $0x7
  1008ad:	68 22 11 2b 00       	push   $0x2b1122
  1008b2:	e8 01 4b 00 00       	call   1053b8 <common_modify_bitb>
  1008b7:	83 c4 0c             	add    $0xc,%esp
  1008ba:	6a 00                	push   $0x0
  1008bc:	6a 06                	push   $0x6
  1008be:	68 22 11 2b 00       	push   $0x2b1122
  1008c3:	e8 f0 4a 00 00       	call   1053b8 <common_modify_bitb>
  1008c8:	83 c4 10             	add    $0x10,%esp
  1008cb:	c9                   	leave  
  1008cc:	e9 0b 49 00 00       	jmp    1051dc <cpu_interrupt>
  1008d1:	8d 76 00             	lea    0x0(%esi),%esi

001008d4 <ppu_run>:
  1008d4:	55                   	push   %ebp
  1008d5:	89 e5                	mov    %esp,%ebp
  1008d7:	53                   	push   %ebx
  1008d8:	52                   	push   %edx
  1008d9:	8b 45 08             	mov    0x8(%ebp),%eax
  1008dc:	85 c0                	test   %eax,%eax
  1008de:	7e 0f                	jle    1008ef <ppu_run+0x1b>
  1008e0:	8d 58 ff             	lea    -0x1(%eax),%ebx
  1008e3:	90                   	nop
  1008e4:	e8 1b ff ff ff       	call   100804 <ppu_cycle>
  1008e9:	4b                   	dec    %ebx
  1008ea:	83 fb ff             	cmp    $0xffffffff,%ebx
  1008ed:	75 f5                	jne    1008e4 <ppu_run+0x10>
  1008ef:	58                   	pop    %eax
  1008f0:	5b                   	pop    %ebx
  1008f1:	5d                   	pop    %ebp
  1008f2:	c3                   	ret    
  1008f3:	90                   	nop

001008f4 <ppu_copy>:
  1008f4:	55                   	push   %ebp
  1008f5:	89 e5                	mov    %esp,%ebp
  1008f7:	0f b7 45 08          	movzwl 0x8(%ebp),%eax
  1008fb:	05 a0 bf 29 00       	add    $0x29bfa0,%eax
  100900:	89 45 08             	mov    %eax,0x8(%ebp)
  100903:	5d                   	pop    %ebp
  100904:	e9 47 68 00 00       	jmp    107150 <my_memcpy>
  100909:	8d 76 00             	lea    0x0(%esi),%esi

0010090c <ppu_io_read>:
  10090c:	55                   	push   %ebp
  10090d:	89 e5                	mov    %esp,%ebp
  10090f:	83 ec 18             	sub    $0x18,%esp
  100912:	66 8b 15 2a 11 2b 00 	mov    0x2b112a,%dx
  100919:	81 e2 ff 3f 00 00    	and    $0x3fff,%edx
  10091f:	66 89 15 2a 11 2b 00 	mov    %dx,0x2b112a
  100926:	8b 45 08             	mov    0x8(%ebp),%eax
  100929:	83 e0 07             	and    $0x7,%eax
  10092c:	66 83 f8 04          	cmp    $0x4,%ax
  100930:	0f 84 ba 00 00 00    	je     1009f0 <ppu_io_read+0xe4>
  100936:	66 83 f8 07          	cmp    $0x7,%ax
  10093a:	74 70                	je     1009ac <ppu_io_read+0xa0>
  10093c:	66 83 f8 02          	cmp    $0x2,%ax
  100940:	74 06                	je     100948 <ppu_io_read+0x3c>
  100942:	b0 ff                	mov    $0xff,%al
  100944:	c9                   	leave  
  100945:	c3                   	ret    
  100946:	66 90                	xchg   %ax,%ax
  100948:	a0 22 11 2b 00       	mov    0x2b1122,%al
  10094d:	88 45 f7             	mov    %al,-0x9(%ebp)
  100950:	50                   	push   %eax
  100951:	6a 00                	push   $0x0
  100953:	6a 07                	push   $0x7
  100955:	68 22 11 2b 00       	push   $0x2b1122
  10095a:	e8 59 4a 00 00       	call   1053b8 <common_modify_bitb>
  10095f:	83 c4 0c             	add    $0xc,%esp
  100962:	6a 00                	push   $0x0
  100964:	6a 06                	push   $0x6
  100966:	68 22 11 2b 00       	push   $0x2b1122
  10096b:	e8 48 4a 00 00       	call   1053b8 <common_modify_bitb>
  100970:	c7 05 30 11 2b 00 00 	movl   $0x0,0x2b1130
  100977:	00 00 00 
  10097a:	66 c7 05 26 11 2b 00 	movw   $0x0,0x2b1126
  100981:	00 00 
  100983:	c7 05 34 11 2b 00 00 	movl   $0x0,0x2b1134
  10098a:	00 00 00 
  10098d:	8a 45 f7             	mov    -0x9(%ebp),%al
  100990:	a2 a0 ff 29 00       	mov    %al,0x29ffa0
  100995:	c6 05 00 11 2b 00 00 	movb   $0x0,0x2b1100
  10099c:	c7 05 04 11 2b 00 01 	movl   $0x1,0x2b1104
  1009a3:	00 00 00 
  1009a6:	83 c4 10             	add    $0x10,%esp
  1009a9:	c9                   	leave  
  1009aa:	c3                   	ret    
  1009ab:	90                   	nop
  1009ac:	0f b7 c2             	movzwl %dx,%eax
  1009af:	0f b7 84 00 60 1f 11 	movzwl 0x111f60(%eax,%eax,1),%eax
  1009b6:	00 
  1009b7:	8a 80 a0 bf 29 00    	mov    0x29bfa0(%eax),%al
  1009bd:	66 81 fa ff 3e       	cmp    $0x3eff,%dx
  1009c2:	76 40                	jbe    100a04 <ppu_io_read+0xf8>
  1009c4:	c6 05 a0 ff 29 00 00 	movb   $0x0,0x29ffa0
  1009cb:	8b 0d 04 11 2b 00    	mov    0x2b1104,%ecx
  1009d1:	85 c9                	test   %ecx,%ecx
  1009d3:	75 37                	jne    100a0c <ppu_io_read+0x100>
  1009d5:	f6 05 20 11 2b 00 04 	testb  $0x4,0x2b1120
  1009dc:	74 3a                	je     100a18 <ppu_io_read+0x10c>
  1009de:	b9 20 00 00 00       	mov    $0x20,%ecx
  1009e3:	01 ca                	add    %ecx,%edx
  1009e5:	66 89 15 2a 11 2b 00 	mov    %dx,0x2b112a
  1009ec:	c9                   	leave  
  1009ed:	c3                   	ret    
  1009ee:	66 90                	xchg   %ax,%ax
  1009f0:	0f b6 05 23 11 2b 00 	movzbl 0x2b1123,%eax
  1009f7:	8a 80 c0 ff 29 00    	mov    0x29ffc0(%eax),%al
  1009fd:	a2 a0 ff 29 00       	mov    %al,0x29ffa0
  100a02:	c9                   	leave  
  100a03:	c3                   	ret    
  100a04:	a2 a0 ff 29 00       	mov    %al,0x29ffa0
  100a09:	eb c0                	jmp    1009cb <ppu_io_read+0xbf>
  100a0b:	90                   	nop
  100a0c:	c7 05 04 11 2b 00 00 	movl   $0x0,0x2b1104
  100a13:	00 00 00 
  100a16:	c9                   	leave  
  100a17:	c3                   	ret    
  100a18:	b9 01 00 00 00       	mov    $0x1,%ecx
  100a1d:	eb c4                	jmp    1009e3 <ppu_io_read+0xd7>
  100a1f:	90                   	nop

00100a20 <ppu_io_write>:
  100a20:	55                   	push   %ebp
  100a21:	89 e5                	mov    %esp,%ebp
  100a23:	8b 4d 0c             	mov    0xc(%ebp),%ecx
  100a26:	88 0d a0 ff 29 00    	mov    %cl,0x29ffa0
  100a2c:	66 a1 2a 11 2b 00    	mov    0x2b112a,%ax
  100a32:	25 ff 3f 00 00       	and    $0x3fff,%eax
  100a37:	66 a3 2a 11 2b 00    	mov    %ax,0x2b112a
  100a3d:	8b 55 08             	mov    0x8(%ebp),%edx
  100a40:	83 e2 07             	and    $0x7,%edx
  100a43:	ff 24 95 44 75 10 00 	jmp    *0x107544(,%edx,4)
  100a4a:	66 90                	xchg   %ax,%ax
  100a4c:	a1 30 11 2b 00       	mov    0x2b1130,%eax
  100a51:	85 c0                	test   %eax,%eax
  100a53:	0f 84 b7 00 00 00    	je     100b10 <ppu_io_write+0xf0>
  100a59:	88 0d 29 11 2b 00    	mov    %cl,0x2b1129
  100a5f:	83 f0 01             	xor    $0x1,%eax
  100a62:	a3 30 11 2b 00       	mov    %eax,0x2b1130
  100a67:	5d                   	pop    %ebp
  100a68:	c3                   	ret    
  100a69:	8d 76 00             	lea    0x0(%esi),%esi
  100a6c:	89 c2                	mov    %eax,%edx
  100a6e:	33 15 40 11 2b 00    	xor    0x2b1140,%edx
  100a74:	0f b7 d2             	movzwl %dx,%edx
  100a77:	0f b7 94 12 60 1f 11 	movzwl 0x111f60(%edx,%edx,1),%edx
  100a7e:	00 
  100a7f:	88 8a a0 bf 29 00    	mov    %cl,0x29bfa0(%edx)
  100a85:	0f b7 c0             	movzwl %ax,%eax
  100a88:	0f b7 84 00 60 1f 11 	movzwl 0x111f60(%eax,%eax,1),%eax
  100a8f:	00 
  100a90:	88 88 a0 bf 29 00    	mov    %cl,0x29bfa0(%eax)
  100a96:	5d                   	pop    %ebp
  100a97:	c3                   	ret    
  100a98:	a1 38 11 2b 00       	mov    0x2b1138,%eax
  100a9d:	85 c0                	test   %eax,%eax
  100a9f:	74 c6                	je     100a67 <ppu_io_write+0x47>
  100aa1:	88 0d 20 11 2b 00    	mov    %cl,0x2b1120
  100aa7:	5d                   	pop    %ebp
  100aa8:	c3                   	ret    
  100aa9:	8d 76 00             	lea    0x0(%esi),%esi
  100aac:	8b 15 38 11 2b 00    	mov    0x2b1138,%edx
  100ab2:	85 d2                	test   %edx,%edx
  100ab4:	74 b1                	je     100a67 <ppu_io_write+0x47>
  100ab6:	88 0d 21 11 2b 00    	mov    %cl,0x2b1121
  100abc:	5d                   	pop    %ebp
  100abd:	c3                   	ret    
  100abe:	66 90                	xchg   %ax,%ax
  100ac0:	88 0d 23 11 2b 00    	mov    %cl,0x2b1123
  100ac6:	5d                   	pop    %ebp
  100ac7:	c3                   	ret    
  100ac8:	0f b6 05 23 11 2b 00 	movzbl 0x2b1123,%eax
  100acf:	8d 50 01             	lea    0x1(%eax),%edx
  100ad2:	88 15 23 11 2b 00    	mov    %dl,0x2b1123
  100ad8:	88 88 c0 ff 29 00    	mov    %cl,0x29ffc0(%eax)
  100ade:	5d                   	pop    %ebp
  100adf:	c3                   	ret    
  100ae0:	a1 38 11 2b 00       	mov    0x2b1138,%eax
  100ae5:	85 c0                	test   %eax,%eax
  100ae7:	0f 84 7a ff ff ff    	je     100a67 <ppu_io_write+0x47>
  100aed:	a1 34 11 2b 00       	mov    0x2b1134,%eax
  100af2:	85 c0                	test   %eax,%eax
  100af4:	75 26                	jne    100b1c <ppu_io_write+0xfc>
  100af6:	88 0d 00 11 2b 00    	mov    %cl,0x2b1100
  100afc:	83 f0 01             	xor    $0x1,%eax
  100aff:	a3 34 11 2b 00       	mov    %eax,0x2b1134
  100b04:	c7 05 04 11 2b 00 01 	movl   $0x1,0x2b1104
  100b0b:	00 00 00 
  100b0e:	5d                   	pop    %ebp
  100b0f:	c3                   	ret    
  100b10:	88 0d 28 11 2b 00    	mov    %cl,0x2b1128
  100b16:	e9 44 ff ff ff       	jmp    100a5f <ppu_io_write+0x3f>
  100b1b:	90                   	nop
  100b1c:	0f b6 15 00 11 2b 00 	movzbl 0x2b1100,%edx
  100b23:	c1 e2 08             	shl    $0x8,%edx
  100b26:	0f b6 c9             	movzbl %cl,%ecx
  100b29:	01 d1                	add    %edx,%ecx
  100b2b:	66 89 0d 2a 11 2b 00 	mov    %cx,0x2b112a
  100b32:	eb c8                	jmp    100afc <ppu_io_write+0xdc>

00100b34 <ppu_init>:
  100b34:	55                   	push   %ebp
  100b35:	89 e5                	mov    %esp,%ebp
  100b37:	57                   	push   %edi
  100b38:	56                   	push   %esi
  100b39:	53                   	push   %ebx
  100b3a:	83 ec 3c             	sub    $0x3c,%esp
  100b3d:	66 c7 05 2a 11 2b 00 	movw   $0x0,0x2b112a
  100b44:	00 00 
  100b46:	c6 05 29 11 2b 00 00 	movb   $0x0,0x2b1129
  100b4d:	c6 05 28 11 2b 00 00 	movb   $0x0,0x2b1128
  100b54:	c6 05 23 11 2b 00 00 	movb   $0x0,0x2b1123
  100b5b:	c6 05 21 11 2b 00 00 	movb   $0x0,0x2b1121
  100b62:	c6 05 20 11 2b 00 00 	movb   $0x0,0x2b1120
  100b69:	c6 05 22 11 2b 00 a0 	movb   $0xa0,0x2b1122
  100b70:	66 c7 05 2c 11 2b 00 	movw   $0x0,0x2b112c
  100b77:	00 00 
  100b79:	c7 05 04 11 2b 00 01 	movl   $0x1,0x2b1104
  100b80:	00 00 00 
  100b83:	c7 45 c4 00 00 00 00 	movl   $0x0,-0x3c(%ebp)
  100b8a:	c7 45 dc 00 00 00 00 	movl   $0x0,-0x24(%ebp)
  100b91:	c7 45 e8 07 00 00 00 	movl   $0x7,-0x18(%ebp)
  100b98:	8b 7d dc             	mov    -0x24(%ebp),%edi
  100b9b:	89 f8                	mov    %edi,%eax
  100b9d:	83 e8 20             	sub    $0x20,%eax
  100ba0:	89 c6                	mov    %eax,%esi
  100ba2:	89 45 bc             	mov    %eax,-0x44(%ebp)
  100ba5:	b8 ff 00 00 00       	mov    $0xff,%eax
  100baa:	89 c3                	mov    %eax,%ebx
  100bac:	89 f1                	mov    %esi,%ecx
  100bae:	d3 e3                	shl    %cl,%ebx
  100bb0:	89 5d c0             	mov    %ebx,-0x40(%ebp)
  100bb3:	ba 20 00 00 00       	mov    $0x20,%edx
  100bb8:	29 fa                	sub    %edi,%edx
  100bba:	89 55 d8             	mov    %edx,-0x28(%ebp)
  100bbd:	89 c6                	mov    %eax,%esi
  100bbf:	88 d1                	mov    %dl,%cl
  100bc1:	d3 fe                	sar    %cl,%esi
  100bc3:	89 75 d4             	mov    %esi,-0x2c(%ebp)
  100bc6:	89 f9                	mov    %edi,%ecx
  100bc8:	d3 e0                	shl    %cl,%eax
  100bca:	89 45 c8             	mov    %eax,-0x38(%ebp)
  100bcd:	c1 f8 1f             	sar    $0x1f,%eax
  100bd0:	89 45 cc             	mov    %eax,-0x34(%ebp)
  100bd3:	8b 45 c4             	mov    -0x3c(%ebp),%eax
  100bd6:	89 45 e4             	mov    %eax,-0x1c(%ebp)
  100bd9:	31 ff                	xor    %edi,%edi
  100bdb:	c7 45 d0 00 00 00 00 	movl   $0x0,-0x30(%ebp)
  100be2:	66 90                	xchg   %ax,%ax
  100be4:	8b 45 d0             	mov    -0x30(%ebp),%eax
  100be7:	8a 4d e8             	mov    -0x18(%ebp),%cl
  100bea:	d3 f8                	sar    %cl,%eax
  100bec:	01 c0                	add    %eax,%eax
  100bee:	83 e0 02             	and    $0x2,%eax
  100bf1:	89 45 e0             	mov    %eax,-0x20(%ebp)
  100bf4:	31 c0                	xor    %eax,%eax
  100bf6:	66 90                	xchg   %ax,%ax
  100bf8:	89 c2                	mov    %eax,%edx
  100bfa:	8a 4d e8             	mov    -0x18(%ebp),%cl
  100bfd:	d3 fa                	sar    %cl,%edx
  100bff:	83 e2 01             	and    $0x1,%edx
  100c02:	0b 55 e0             	or     -0x20(%ebp),%edx
  100c05:	8b 5d e4             	mov    -0x1c(%ebp),%ebx
  100c08:	88 94 03 60 9f 21 00 	mov    %dl,0x219f60(%ebx,%eax,1)
  100c0f:	8b 75 dc             	mov    -0x24(%ebp),%esi
  100c12:	83 fe 1f             	cmp    $0x1f,%esi
  100c15:	0f 87 de 00 00 00    	ja     100cf9 <ppu_init+0x1c5>
  100c1b:	89 d3                	mov    %edx,%ebx
  100c1d:	89 f1                	mov    %esi,%ecx
  100c1f:	d3 e3                	shl    %cl,%ebx
  100c21:	89 de                	mov    %ebx,%esi
  100c23:	c1 fb 1f             	sar    $0x1f,%ebx
  100c26:	0b 9c c7 64 9f 19 00 	or     0x199f64(%edi,%eax,8),%ebx
  100c2d:	89 5d ec             	mov    %ebx,-0x14(%ebp)
  100c30:	89 d3                	mov    %edx,%ebx
  100c32:	8a 4d d8             	mov    -0x28(%ebp),%cl
  100c35:	d3 fb                	sar    %cl,%ebx
  100c37:	89 d9                	mov    %ebx,%ecx
  100c39:	09 b4 c7 60 9f 19 00 	or     %esi,0x199f60(%edi,%eax,8)
  100c40:	8b 5d ec             	mov    -0x14(%ebp),%ebx
  100c43:	09 cb                	or     %ecx,%ebx
  100c45:	89 9c c7 64 9f 19 00 	mov    %ebx,0x199f64(%edi,%eax,8)
  100c4c:	85 d2                	test   %edx,%edx
  100c4e:	75 24                	jne    100c74 <ppu_init+0x140>
  100c50:	8b 55 c8             	mov    -0x38(%ebp),%edx
  100c53:	8b 4d cc             	mov    -0x34(%ebp),%ecx
  100c56:	89 d3                	mov    %edx,%ebx
  100c58:	89 ca                	mov    %ecx,%edx
  100c5a:	8b 4d d4             	mov    -0x2c(%ebp),%ecx
  100c5d:	0b 94 c7 64 9f 11 00 	or     0x119f64(%edi,%eax,8),%edx
  100c64:	09 9c c7 60 9f 11 00 	or     %ebx,0x119f60(%edi,%eax,8)
  100c6b:	09 ca                	or     %ecx,%edx
  100c6d:	89 94 c7 64 9f 11 00 	mov    %edx,0x119f64(%edi,%eax,8)
  100c74:	40                   	inc    %eax
  100c75:	3d 00 01 00 00       	cmp    $0x100,%eax
  100c7a:	0f 85 78 ff ff ff    	jne    100bf8 <ppu_init+0xc4>
  100c80:	ff 45 d0             	incl   -0x30(%ebp)
  100c83:	8b 45 d0             	mov    -0x30(%ebp),%eax
  100c86:	81 c7 00 08 00 00    	add    $0x800,%edi
  100c8c:	81 45 e4 00 01 00 00 	addl   $0x100,-0x1c(%ebp)
  100c93:	3d 00 01 00 00       	cmp    $0x100,%eax
  100c98:	0f 85 46 ff ff ff    	jne    100be4 <ppu_init+0xb0>
  100c9e:	ff 4d e8             	decl   -0x18(%ebp)
  100ca1:	83 45 dc 08          	addl   $0x8,-0x24(%ebp)
  100ca5:	8b 45 dc             	mov    -0x24(%ebp),%eax
  100ca8:	81 45 c4 00 00 01 00 	addl   $0x10000,-0x3c(%ebp)
  100caf:	83 f8 40             	cmp    $0x40,%eax
  100cb2:	0f 85 e0 fe ff ff    	jne    100b98 <ppu_init+0x64>
  100cb8:	31 d2                	xor    %edx,%edx
  100cba:	31 c0                	xor    %eax,%eax
  100cbc:	66 89 84 12 60 1f 11 	mov    %ax,0x111f60(%edx,%edx,1)
  100cc3:	00 
  100cc4:	42                   	inc    %edx
  100cc5:	81 fa 00 40 00 00    	cmp    $0x4000,%edx
  100ccb:	74 54                	je     100d21 <ppu_init+0x1ed>
  100ccd:	89 d0                	mov    %edx,%eax
  100ccf:	81 fa ff 1f 00 00    	cmp    $0x1fff,%edx
  100cd5:	7e e5                	jle    100cbc <ppu_init+0x188>
  100cd7:	81 fa ff 3e 00 00    	cmp    $0x3eff,%edx
  100cdd:	7e dd                	jle    100cbc <ppu_init+0x188>
  100cdf:	83 e0 1f             	and    $0x1f,%eax
  100ce2:	80 cc 3f             	or     $0x3f,%ah
  100ce5:	89 d1                	mov    %edx,%ecx
  100ce7:	83 e1 13             	and    $0x13,%ecx
  100cea:	80 cd 3f             	or     $0x3f,%ch
  100ced:	66 81 f9 10 3f       	cmp    $0x3f10,%cx
  100cf2:	75 c8                	jne    100cbc <ppu_init+0x188>
  100cf4:	83 e8 10             	sub    $0x10,%eax
  100cf7:	eb c3                	jmp    100cbc <ppu_init+0x188>
  100cf9:	89 d6                	mov    %edx,%esi
  100cfb:	8a 4d bc             	mov    -0x44(%ebp),%cl
  100cfe:	d3 e6                	shl    %cl,%esi
  100d00:	83 8c c7 60 9f 19 00 	orl    $0x0,0x199f60(%edi,%eax,8)
  100d07:	00 
  100d08:	09 b4 c7 64 9f 19 00 	or     %esi,0x199f64(%edi,%eax,8)
  100d0f:	85 d2                	test   %edx,%edx
  100d11:	0f 85 5d ff ff ff    	jne    100c74 <ppu_init+0x140>
  100d17:	8b 4d c0             	mov    -0x40(%ebp),%ecx
  100d1a:	31 db                	xor    %ebx,%ebx
  100d1c:	e9 3c ff ff ff       	jmp    100c5d <ppu_init+0x129>
  100d21:	83 c4 3c             	add    $0x3c,%esp
  100d24:	5b                   	pop    %ebx
  100d25:	5e                   	pop    %esi
  100d26:	5f                   	pop    %edi
  100d27:	5d                   	pop    %ebp
  100d28:	c3                   	ret    
  100d29:	8d 76 00             	lea    0x0(%esi),%esi

00100d2c <ppu_sprram_write>:
  100d2c:	55                   	push   %ebp
  100d2d:	89 e5                	mov    %esp,%ebp
  100d2f:	0f b6 05 23 11 2b 00 	movzbl 0x2b1123,%eax
  100d36:	8d 50 01             	lea    0x1(%eax),%edx
  100d39:	88 15 23 11 2b 00    	mov    %dl,0x2b1123
  100d3f:	8b 55 08             	mov    0x8(%ebp),%edx
  100d42:	88 90 c0 ff 29 00    	mov    %dl,0x29ffc0(%eax)
  100d48:	5d                   	pop    %ebp
  100d49:	c3                   	ret    
  100d4a:	66 90                	xchg   %ax,%ax

00100d4c <ppu_set_background_color>:
  100d4c:	55                   	push   %ebp
  100d4d:	89 e5                	mov    %esp,%ebp
  100d4f:	5d                   	pop    %ebp
  100d50:	c3                   	ret    
  100d51:	8d 76 00             	lea    0x0(%esi),%esi

00100d54 <ppu_set_mirroring>:
  100d54:	55                   	push   %ebp
  100d55:	89 e5                	mov    %esp,%ebp
  100d57:	0f b6 4d 08          	movzbl 0x8(%ebp),%ecx
  100d5b:	89 0d 3c 11 2b 00    	mov    %ecx,0x2b113c
  100d61:	b8 00 04 00 00       	mov    $0x400,%eax
  100d66:	d3 e0                	shl    %cl,%eax
  100d68:	a3 40 11 2b 00       	mov    %eax,0x2b1140
  100d6d:	5d                   	pop    %ebp
  100d6e:	c3                   	ret    
  100d6f:	90                   	nop

00100d70 <cpu_op_nop>:
  100d70:	55                   	push   %ebp
  100d71:	89 e5                	mov    %esp,%ebp
  100d73:	5d                   	pop    %ebp
  100d74:	c3                   	ret    
  100d75:	8d 76 00             	lea    0x0(%esi),%esi

00100d78 <cpu_op_and>:
  100d78:	55                   	push   %ebp
  100d79:	89 e5                	mov    %esp,%ebp
  100d7b:	8a 15 86 19 2b 00    	mov    0x2b1986,%dl
  100d81:	83 e2 7d             	and    $0x7d,%edx
  100d84:	a1 60 11 2b 00       	mov    0x2b1160,%eax
  100d89:	22 05 83 19 2b 00    	and    0x2b1983,%al
  100d8f:	a2 83 19 2b 00       	mov    %al,0x2b1983
  100d94:	0f b6 c0             	movzbl %al,%eax
  100d97:	0a 90 80 76 10 00    	or     0x107680(%eax),%dl
  100d9d:	88 15 86 19 2b 00    	mov    %dl,0x2b1986
  100da3:	5d                   	pop    %ebp
  100da4:	c3                   	ret    
  100da5:	8d 76 00             	lea    0x0(%esi),%esi

00100da8 <cpu_op_eor>:
  100da8:	55                   	push   %ebp
  100da9:	89 e5                	mov    %esp,%ebp
  100dab:	8a 15 86 19 2b 00    	mov    0x2b1986,%dl
  100db1:	83 e2 7d             	and    $0x7d,%edx
  100db4:	a1 60 11 2b 00       	mov    0x2b1160,%eax
  100db9:	32 05 83 19 2b 00    	xor    0x2b1983,%al
  100dbf:	a2 83 19 2b 00       	mov    %al,0x2b1983
  100dc4:	0f b6 c0             	movzbl %al,%eax
  100dc7:	0a 90 80 76 10 00    	or     0x107680(%eax),%dl
  100dcd:	88 15 86 19 2b 00    	mov    %dl,0x2b1986
  100dd3:	5d                   	pop    %ebp
  100dd4:	c3                   	ret    
  100dd5:	8d 76 00             	lea    0x0(%esi),%esi

00100dd8 <cpu_op_ora>:
  100dd8:	55                   	push   %ebp
  100dd9:	89 e5                	mov    %esp,%ebp
  100ddb:	8a 15 86 19 2b 00    	mov    0x2b1986,%dl
  100de1:	83 e2 7d             	and    $0x7d,%edx
  100de4:	a1 60 11 2b 00       	mov    0x2b1160,%eax
  100de9:	0a 05 83 19 2b 00    	or     0x2b1983,%al
  100def:	a2 83 19 2b 00       	mov    %al,0x2b1983
  100df4:	0f b6 c0             	movzbl %al,%eax
  100df7:	0a 90 80 76 10 00    	or     0x107680(%eax),%dl
  100dfd:	88 15 86 19 2b 00    	mov    %dl,0x2b1986
  100e03:	5d                   	pop    %ebp
  100e04:	c3                   	ret    
  100e05:	8d 76 00             	lea    0x0(%esi),%esi

00100e08 <cpu_op_lda>:
  100e08:	55                   	push   %ebp
  100e09:	89 e5                	mov    %esp,%ebp
  100e0b:	a0 86 19 2b 00       	mov    0x2b1986,%al
  100e10:	83 e0 7d             	and    $0x7d,%eax
  100e13:	8b 15 60 11 2b 00    	mov    0x2b1160,%edx
  100e19:	88 15 83 19 2b 00    	mov    %dl,0x2b1983
  100e1f:	0f b6 d2             	movzbl %dl,%edx
  100e22:	0a 82 80 76 10 00    	or     0x107680(%edx),%al
  100e28:	a2 86 19 2b 00       	mov    %al,0x2b1986
  100e2d:	5d                   	pop    %ebp
  100e2e:	c3                   	ret    
  100e2f:	90                   	nop

00100e30 <cpu_op_ldx>:
  100e30:	55                   	push   %ebp
  100e31:	89 e5                	mov    %esp,%ebp
  100e33:	a0 86 19 2b 00       	mov    0x2b1986,%al
  100e38:	83 e0 7d             	and    $0x7d,%eax
  100e3b:	8b 15 60 11 2b 00    	mov    0x2b1160,%edx
  100e41:	88 15 84 19 2b 00    	mov    %dl,0x2b1984
  100e47:	0f b6 d2             	movzbl %dl,%edx
  100e4a:	0a 82 80 76 10 00    	or     0x107680(%edx),%al
  100e50:	a2 86 19 2b 00       	mov    %al,0x2b1986
  100e55:	5d                   	pop    %ebp
  100e56:	c3                   	ret    
  100e57:	90                   	nop

00100e58 <cpu_op_ldy>:
  100e58:	55                   	push   %ebp
  100e59:	89 e5                	mov    %esp,%ebp
  100e5b:	a0 86 19 2b 00       	mov    0x2b1986,%al
  100e60:	83 e0 7d             	and    $0x7d,%eax
  100e63:	8b 15 60 11 2b 00    	mov    0x2b1160,%edx
  100e69:	88 15 85 19 2b 00    	mov    %dl,0x2b1985
  100e6f:	0f b6 d2             	movzbl %dl,%edx
  100e72:	0a 82 80 76 10 00    	or     0x107680(%edx),%al
  100e78:	a2 86 19 2b 00       	mov    %al,0x2b1986
  100e7d:	5d                   	pop    %ebp
  100e7e:	c3                   	ret    
  100e7f:	90                   	nop

00100e80 <cpu_op_tax>:
  100e80:	55                   	push   %ebp
  100e81:	89 e5                	mov    %esp,%ebp
  100e83:	a0 86 19 2b 00       	mov    0x2b1986,%al
  100e88:	83 e0 7d             	and    $0x7d,%eax
  100e8b:	0f b6 15 83 19 2b 00 	movzbl 0x2b1983,%edx
  100e92:	88 15 84 19 2b 00    	mov    %dl,0x2b1984
  100e98:	0a 82 80 76 10 00    	or     0x107680(%edx),%al
  100e9e:	a2 86 19 2b 00       	mov    %al,0x2b1986
  100ea3:	5d                   	pop    %ebp
  100ea4:	c3                   	ret    
  100ea5:	8d 76 00             	lea    0x0(%esi),%esi

00100ea8 <cpu_op_txa>:
  100ea8:	55                   	push   %ebp
  100ea9:	89 e5                	mov    %esp,%ebp
  100eab:	a0 86 19 2b 00       	mov    0x2b1986,%al
  100eb0:	83 e0 7d             	and    $0x7d,%eax
  100eb3:	0f b6 15 84 19 2b 00 	movzbl 0x2b1984,%edx
  100eba:	88 15 83 19 2b 00    	mov    %dl,0x2b1983
  100ec0:	0a 82 80 76 10 00    	or     0x107680(%edx),%al
  100ec6:	a2 86 19 2b 00       	mov    %al,0x2b1986
  100ecb:	5d                   	pop    %ebp
  100ecc:	c3                   	ret    
  100ecd:	8d 76 00             	lea    0x0(%esi),%esi

00100ed0 <cpu_op_tay>:
  100ed0:	55                   	push   %ebp
  100ed1:	89 e5                	mov    %esp,%ebp
  100ed3:	a0 86 19 2b 00       	mov    0x2b1986,%al
  100ed8:	83 e0 7d             	and    $0x7d,%eax
  100edb:	0f b6 15 83 19 2b 00 	movzbl 0x2b1983,%edx
  100ee2:	88 15 85 19 2b 00    	mov    %dl,0x2b1985
  100ee8:	0a 82 80 76 10 00    	or     0x107680(%edx),%al
  100eee:	a2 86 19 2b 00       	mov    %al,0x2b1986
  100ef3:	5d                   	pop    %ebp
  100ef4:	c3                   	ret    
  100ef5:	8d 76 00             	lea    0x0(%esi),%esi

00100ef8 <cpu_op_tya>:
  100ef8:	55                   	push   %ebp
  100ef9:	89 e5                	mov    %esp,%ebp
  100efb:	a0 86 19 2b 00       	mov    0x2b1986,%al
  100f00:	83 e0 7d             	and    $0x7d,%eax
  100f03:	0f b6 15 85 19 2b 00 	movzbl 0x2b1985,%edx
  100f0a:	88 15 83 19 2b 00    	mov    %dl,0x2b1983
  100f10:	0a 82 80 76 10 00    	or     0x107680(%edx),%al
  100f16:	a2 86 19 2b 00       	mov    %al,0x2b1986
  100f1b:	5d                   	pop    %ebp
  100f1c:	c3                   	ret    
  100f1d:	8d 76 00             	lea    0x0(%esi),%esi

00100f20 <cpu_op_tsx>:
  100f20:	55                   	push   %ebp
  100f21:	89 e5                	mov    %esp,%ebp
  100f23:	a0 86 19 2b 00       	mov    0x2b1986,%al
  100f28:	83 e0 7d             	and    $0x7d,%eax
  100f2b:	0f b6 15 82 19 2b 00 	movzbl 0x2b1982,%edx
  100f32:	88 15 84 19 2b 00    	mov    %dl,0x2b1984
  100f38:	0a 82 80 76 10 00    	or     0x107680(%edx),%al
  100f3e:	a2 86 19 2b 00       	mov    %al,0x2b1986
  100f43:	5d                   	pop    %ebp
  100f44:	c3                   	ret    
  100f45:	8d 76 00             	lea    0x0(%esi),%esi

00100f48 <cpu_op_txs>:
  100f48:	55                   	push   %ebp
  100f49:	89 e5                	mov    %esp,%ebp
  100f4b:	a0 84 19 2b 00       	mov    0x2b1984,%al
  100f50:	a2 82 19 2b 00       	mov    %al,0x2b1982
  100f55:	5d                   	pop    %ebp
  100f56:	c3                   	ret    
  100f57:	90                   	nop

00100f58 <cpu_op_bcs>:
  100f58:	55                   	push   %ebp
  100f59:	89 e5                	mov    %esp,%ebp
  100f5b:	f6 05 86 19 2b 00 01 	testb  $0x1,0x2b1986
  100f62:	74 0b                	je     100f6f <cpu_op_bcs+0x17>
  100f64:	a1 64 11 2b 00       	mov    0x2b1164,%eax
  100f69:	66 a3 80 19 2b 00    	mov    %ax,0x2b1980
  100f6f:	5d                   	pop    %ebp
  100f70:	c3                   	ret    
  100f71:	8d 76 00             	lea    0x0(%esi),%esi

00100f74 <cpu_op_beq>:
  100f74:	55                   	push   %ebp
  100f75:	89 e5                	mov    %esp,%ebp
  100f77:	f6 05 86 19 2b 00 02 	testb  $0x2,0x2b1986
  100f7e:	74 0b                	je     100f8b <cpu_op_beq+0x17>
  100f80:	a1 64 11 2b 00       	mov    0x2b1164,%eax
  100f85:	66 a3 80 19 2b 00    	mov    %ax,0x2b1980
  100f8b:	5d                   	pop    %ebp
  100f8c:	c3                   	ret    
  100f8d:	8d 76 00             	lea    0x0(%esi),%esi

00100f90 <cpu_op_bmi>:
  100f90:	55                   	push   %ebp
  100f91:	89 e5                	mov    %esp,%ebp
  100f93:	80 3d 86 19 2b 00 00 	cmpb   $0x0,0x2b1986
  100f9a:	79 0b                	jns    100fa7 <cpu_op_bmi+0x17>
  100f9c:	a1 64 11 2b 00       	mov    0x2b1164,%eax
  100fa1:	66 a3 80 19 2b 00    	mov    %ax,0x2b1980
  100fa7:	5d                   	pop    %ebp
  100fa8:	c3                   	ret    
  100fa9:	8d 76 00             	lea    0x0(%esi),%esi

00100fac <cpu_op_bvs>:
  100fac:	55                   	push   %ebp
  100fad:	89 e5                	mov    %esp,%ebp
  100faf:	f6 05 86 19 2b 00 40 	testb  $0x40,0x2b1986
  100fb6:	74 0b                	je     100fc3 <cpu_op_bvs+0x17>
  100fb8:	a1 64 11 2b 00       	mov    0x2b1164,%eax
  100fbd:	66 a3 80 19 2b 00    	mov    %ax,0x2b1980
  100fc3:	5d                   	pop    %ebp
  100fc4:	c3                   	ret    
  100fc5:	8d 76 00             	lea    0x0(%esi),%esi

00100fc8 <cpu_op_bne>:
  100fc8:	55                   	push   %ebp
  100fc9:	89 e5                	mov    %esp,%ebp
  100fcb:	f6 05 86 19 2b 00 02 	testb  $0x2,0x2b1986
  100fd2:	75 0b                	jne    100fdf <cpu_op_bne+0x17>
  100fd4:	a1 64 11 2b 00       	mov    0x2b1164,%eax
  100fd9:	66 a3 80 19 2b 00    	mov    %ax,0x2b1980
  100fdf:	5d                   	pop    %ebp
  100fe0:	c3                   	ret    
  100fe1:	8d 76 00             	lea    0x0(%esi),%esi

00100fe4 <cpu_op_bcc>:
  100fe4:	55                   	push   %ebp
  100fe5:	89 e5                	mov    %esp,%ebp
  100fe7:	f6 05 86 19 2b 00 01 	testb  $0x1,0x2b1986
  100fee:	75 0b                	jne    100ffb <cpu_op_bcc+0x17>
  100ff0:	a1 64 11 2b 00       	mov    0x2b1164,%eax
  100ff5:	66 a3 80 19 2b 00    	mov    %ax,0x2b1980
  100ffb:	5d                   	pop    %ebp
  100ffc:	c3                   	ret    
  100ffd:	8d 76 00             	lea    0x0(%esi),%esi

00101000 <cpu_op_bpl>:
  101000:	55                   	push   %ebp
  101001:	89 e5                	mov    %esp,%ebp
  101003:	80 3d 86 19 2b 00 00 	cmpb   $0x0,0x2b1986
  10100a:	78 0b                	js     101017 <cpu_op_bpl+0x17>
  10100c:	a1 64 11 2b 00       	mov    0x2b1164,%eax
  101011:	66 a3 80 19 2b 00    	mov    %ax,0x2b1980
  101017:	5d                   	pop    %ebp
  101018:	c3                   	ret    
  101019:	8d 76 00             	lea    0x0(%esi),%esi

0010101c <cpu_op_bvc>:
  10101c:	55                   	push   %ebp
  10101d:	89 e5                	mov    %esp,%ebp
  10101f:	f6 05 86 19 2b 00 40 	testb  $0x40,0x2b1986
  101026:	75 0b                	jne    101033 <cpu_op_bvc+0x17>
  101028:	a1 64 11 2b 00       	mov    0x2b1164,%eax
  10102d:	66 a3 80 19 2b 00    	mov    %ax,0x2b1980
  101033:	5d                   	pop    %ebp
  101034:	c3                   	ret    
  101035:	8d 76 00             	lea    0x0(%esi),%esi

00101038 <cpu_op_jmp>:
  101038:	55                   	push   %ebp
  101039:	89 e5                	mov    %esp,%ebp
  10103b:	a1 64 11 2b 00       	mov    0x2b1164,%eax
  101040:	66 a3 80 19 2b 00    	mov    %ax,0x2b1980
  101046:	5d                   	pop    %ebp
  101047:	c3                   	ret    

00101048 <cpu_op_inx>:
  101048:	55                   	push   %ebp
  101049:	89 e5                	mov    %esp,%ebp
  10104b:	8a 15 86 19 2b 00    	mov    0x2b1986,%dl
  101051:	83 e2 7d             	and    $0x7d,%edx
  101054:	a0 84 19 2b 00       	mov    0x2b1984,%al
  101059:	40                   	inc    %eax
  10105a:	a2 84 19 2b 00       	mov    %al,0x2b1984
  10105f:	0f b6 c0             	movzbl %al,%eax
  101062:	0a 90 80 76 10 00    	or     0x107680(%eax),%dl
  101068:	88 15 86 19 2b 00    	mov    %dl,0x2b1986
  10106e:	5d                   	pop    %ebp
  10106f:	c3                   	ret    

00101070 <cpu_op_iny>:
  101070:	55                   	push   %ebp
  101071:	89 e5                	mov    %esp,%ebp
  101073:	8a 15 86 19 2b 00    	mov    0x2b1986,%dl
  101079:	83 e2 7d             	and    $0x7d,%edx
  10107c:	a0 85 19 2b 00       	mov    0x2b1985,%al
  101081:	40                   	inc    %eax
  101082:	a2 85 19 2b 00       	mov    %al,0x2b1985
  101087:	0f b6 c0             	movzbl %al,%eax
  10108a:	0a 90 80 76 10 00    	or     0x107680(%eax),%dl
  101090:	88 15 86 19 2b 00    	mov    %dl,0x2b1986
  101096:	5d                   	pop    %ebp
  101097:	c3                   	ret    

00101098 <cpu_op_dex>:
  101098:	55                   	push   %ebp
  101099:	89 e5                	mov    %esp,%ebp
  10109b:	8a 15 86 19 2b 00    	mov    0x2b1986,%dl
  1010a1:	83 e2 7d             	and    $0x7d,%edx
  1010a4:	a0 84 19 2b 00       	mov    0x2b1984,%al
  1010a9:	48                   	dec    %eax
  1010aa:	a2 84 19 2b 00       	mov    %al,0x2b1984
  1010af:	0f b6 c0             	movzbl %al,%eax
  1010b2:	0a 90 80 76 10 00    	or     0x107680(%eax),%dl
  1010b8:	88 15 86 19 2b 00    	mov    %dl,0x2b1986
  1010be:	5d                   	pop    %ebp
  1010bf:	c3                   	ret    

001010c0 <cpu_op_dey>:
  1010c0:	55                   	push   %ebp
  1010c1:	89 e5                	mov    %esp,%ebp
  1010c3:	8a 15 86 19 2b 00    	mov    0x2b1986,%dl
  1010c9:	83 e2 7d             	and    $0x7d,%edx
  1010cc:	a0 85 19 2b 00       	mov    0x2b1985,%al
  1010d1:	48                   	dec    %eax
  1010d2:	a2 85 19 2b 00       	mov    %al,0x2b1985
  1010d7:	0f b6 c0             	movzbl %al,%eax
  1010da:	0a 90 80 76 10 00    	or     0x107680(%eax),%dl
  1010e0:	88 15 86 19 2b 00    	mov    %dl,0x2b1986
  1010e6:	5d                   	pop    %ebp
  1010e7:	c3                   	ret    

001010e8 <cpu_op_lax>:
  1010e8:	55                   	push   %ebp
  1010e9:	89 e5                	mov    %esp,%ebp
  1010eb:	a0 86 19 2b 00       	mov    0x2b1986,%al
  1010f0:	83 e0 7d             	and    $0x7d,%eax
  1010f3:	8b 15 60 11 2b 00    	mov    0x2b1160,%edx
  1010f9:	88 15 84 19 2b 00    	mov    %dl,0x2b1984
  1010ff:	88 15 83 19 2b 00    	mov    %dl,0x2b1983
  101105:	0f b6 d2             	movzbl %dl,%edx
  101108:	0a 82 80 76 10 00    	or     0x107680(%edx),%al
  10110e:	a2 86 19 2b 00       	mov    %al,0x2b1986
  101113:	5d                   	pop    %ebp
  101114:	c3                   	ret    
  101115:	8d 76 00             	lea    0x0(%esi),%esi

00101118 <cpu_op_adc>:
  101118:	55                   	push   %ebp
  101119:	89 e5                	mov    %esp,%ebp
  10111b:	53                   	push   %ebx
  10111c:	83 ec 08             	sub    $0x8,%esp
  10111f:	0f b6 1d 83 19 2b 00 	movzbl 0x2b1983,%ebx
  101126:	a1 60 11 2b 00       	mov    0x2b1160,%eax
  10112b:	01 d8                	add    %ebx,%eax
  10112d:	8a 1d 86 19 2b 00    	mov    0x2b1986,%bl
  101133:	83 e3 01             	and    $0x1,%ebx
  101136:	01 c3                	add    %eax,%ebx
  101138:	89 d8                	mov    %ebx,%eax
  10113a:	c1 e8 08             	shr    $0x8,%eax
  10113d:	83 e0 01             	and    $0x1,%eax
  101140:	50                   	push   %eax
  101141:	6a 00                	push   $0x0
  101143:	68 86 19 2b 00       	push   $0x2b1986
  101148:	e8 6b 42 00 00       	call   1053b8 <common_modify_bitb>
  10114d:	0f b6 15 83 19 2b 00 	movzbl 0x2b1983,%edx
  101154:	83 c4 0c             	add    $0xc,%esp
  101157:	a1 60 11 2b 00       	mov    0x2b1160,%eax
  10115c:	31 d0                	xor    %edx,%eax
  10115e:	f7 d0                	not    %eax
  101160:	25 80 00 00 00       	and    $0x80,%eax
  101165:	31 da                	xor    %ebx,%edx
  101167:	85 d0                	test   %edx,%eax
  101169:	0f 95 c0             	setne  %al
  10116c:	0f b6 c0             	movzbl %al,%eax
  10116f:	50                   	push   %eax
  101170:	6a 06                	push   $0x6
  101172:	68 86 19 2b 00       	push   $0x2b1986
  101177:	e8 3c 42 00 00       	call   1053b8 <common_modify_bitb>
  10117c:	88 1d 83 19 2b 00    	mov    %bl,0x2b1983
  101182:	a0 86 19 2b 00       	mov    0x2b1986,%al
  101187:	83 e0 7d             	and    $0x7d,%eax
  10118a:	0f b6 db             	movzbl %bl,%ebx
  10118d:	0a 83 80 76 10 00    	or     0x107680(%ebx),%al
  101193:	a2 86 19 2b 00       	mov    %al,0x2b1986
  101198:	83 c4 10             	add    $0x10,%esp
  10119b:	8b 5d fc             	mov    -0x4(%ebp),%ebx
  10119e:	c9                   	leave  
  10119f:	c3                   	ret    

001011a0 <cpu_op_sbc>:
  1011a0:	55                   	push   %ebp
  1011a1:	89 e5                	mov    %esp,%ebp
  1011a3:	53                   	push   %ebx
  1011a4:	83 ec 08             	sub    $0x8,%esp
  1011a7:	0f b6 1d 83 19 2b 00 	movzbl 0x2b1983,%ebx
  1011ae:	2b 1d 60 11 2b 00    	sub    0x2b1160,%ebx
  1011b4:	a0 86 19 2b 00       	mov    0x2b1986,%al
  1011b9:	f7 d0                	not    %eax
  1011bb:	83 e0 01             	and    $0x1,%eax
  1011be:	29 c3                	sub    %eax,%ebx
  1011c0:	31 c0                	xor    %eax,%eax
  1011c2:	f6 c7 01             	test   $0x1,%bh
  1011c5:	0f 94 c0             	sete   %al
  1011c8:	50                   	push   %eax
  1011c9:	6a 00                	push   $0x0
  1011cb:	68 86 19 2b 00       	push   $0x2b1986
  1011d0:	e8 e3 41 00 00       	call   1053b8 <common_modify_bitb>
  1011d5:	0f b6 05 83 19 2b 00 	movzbl 0x2b1983,%eax
  1011dc:	83 c4 0c             	add    $0xc,%esp
  1011df:	8b 15 60 11 2b 00    	mov    0x2b1160,%edx
  1011e5:	31 c2                	xor    %eax,%edx
  1011e7:	81 e2 80 00 00 00    	and    $0x80,%edx
  1011ed:	31 d8                	xor    %ebx,%eax
  1011ef:	85 c2                	test   %eax,%edx
  1011f1:	0f 95 c0             	setne  %al
  1011f4:	0f b6 c0             	movzbl %al,%eax
  1011f7:	50                   	push   %eax
  1011f8:	6a 06                	push   $0x6
  1011fa:	68 86 19 2b 00       	push   $0x2b1986
  1011ff:	e8 b4 41 00 00       	call   1053b8 <common_modify_bitb>
  101204:	88 1d 83 19 2b 00    	mov    %bl,0x2b1983
  10120a:	a0 86 19 2b 00       	mov    0x2b1986,%al
  10120f:	83 e0 7d             	and    $0x7d,%eax
  101212:	0f b6 db             	movzbl %bl,%ebx
  101215:	0a 83 80 76 10 00    	or     0x107680(%ebx),%al
  10121b:	a2 86 19 2b 00       	mov    %al,0x2b1986
  101220:	83 c4 10             	add    $0x10,%esp
  101223:	8b 5d fc             	mov    -0x4(%ebp),%ebx
  101226:	c9                   	leave  
  101227:	c3                   	ret    

00101228 <cpu_op_bit>:
  101228:	55                   	push   %ebp
  101229:	89 e5                	mov    %esp,%ebp
  10122b:	83 ec 0c             	sub    $0xc,%esp
  10122e:	0f b6 05 83 19 2b 00 	movzbl 0x2b1983,%eax
  101235:	85 05 60 11 2b 00    	test   %eax,0x2b1160
  10123b:	0f 94 c0             	sete   %al
  10123e:	0f b6 c0             	movzbl %al,%eax
  101241:	50                   	push   %eax
  101242:	6a 01                	push   $0x1
  101244:	68 86 19 2b 00       	push   $0x2b1986
  101249:	e8 6a 41 00 00       	call   1053b8 <common_modify_bitb>
  10124e:	a0 86 19 2b 00       	mov    0x2b1986,%al
  101253:	83 e0 3f             	and    $0x3f,%eax
  101256:	8a 15 60 11 2b 00    	mov    0x2b1160,%dl
  10125c:	83 e2 c0             	and    $0xffffffc0,%edx
  10125f:	09 d0                	or     %edx,%eax
  101261:	a2 86 19 2b 00       	mov    %al,0x2b1986
  101266:	83 c4 10             	add    $0x10,%esp
  101269:	c9                   	leave  
  10126a:	c3                   	ret    
  10126b:	90                   	nop

0010126c <cpu_op_asla>:
  10126c:	55                   	push   %ebp
  10126d:	89 e5                	mov    %esp,%ebp
  10126f:	83 ec 0c             	sub    $0xc,%esp
  101272:	a0 83 19 2b 00       	mov    0x2b1983,%al
  101277:	83 e0 80             	and    $0xffffff80,%eax
  10127a:	0f b6 c0             	movzbl %al,%eax
  10127d:	50                   	push   %eax
  10127e:	6a 00                	push   $0x0
  101280:	68 86 19 2b 00       	push   $0x2b1986
  101285:	e8 2e 41 00 00       	call   1053b8 <common_modify_bitb>
  10128a:	a0 83 19 2b 00       	mov    0x2b1983,%al
  10128f:	d1 e0                	shl    %eax
  101291:	a2 83 19 2b 00       	mov    %al,0x2b1983
  101296:	8a 15 86 19 2b 00    	mov    0x2b1986,%dl
  10129c:	83 e2 7d             	and    $0x7d,%edx
  10129f:	0f b6 c0             	movzbl %al,%eax
  1012a2:	0a 90 80 76 10 00    	or     0x107680(%eax),%dl
  1012a8:	88 15 86 19 2b 00    	mov    %dl,0x2b1986
  1012ae:	83 c4 10             	add    $0x10,%esp
  1012b1:	c9                   	leave  
  1012b2:	c3                   	ret    
  1012b3:	90                   	nop

001012b4 <cpu_op_lsra>:
  1012b4:	55                   	push   %ebp
  1012b5:	89 e5                	mov    %esp,%ebp
  1012b7:	53                   	push   %ebx
  1012b8:	83 ec 08             	sub    $0x8,%esp
  1012bb:	a0 83 19 2b 00       	mov    0x2b1983,%al
  1012c0:	88 c3                	mov    %al,%bl
  1012c2:	d0 eb                	shr    %bl
  1012c4:	83 e0 01             	and    $0x1,%eax
  1012c7:	50                   	push   %eax
  1012c8:	6a 00                	push   $0x0
  1012ca:	68 86 19 2b 00       	push   $0x2b1986
  1012cf:	e8 e4 40 00 00       	call   1053b8 <common_modify_bitb>
  1012d4:	88 1d 83 19 2b 00    	mov    %bl,0x2b1983
  1012da:	a0 86 19 2b 00       	mov    0x2b1986,%al
  1012df:	83 e0 7d             	and    $0x7d,%eax
  1012e2:	0f b6 db             	movzbl %bl,%ebx
  1012e5:	0a 83 80 76 10 00    	or     0x107680(%ebx),%al
  1012eb:	a2 86 19 2b 00       	mov    %al,0x2b1986
  1012f0:	83 c4 10             	add    $0x10,%esp
  1012f3:	8b 5d fc             	mov    -0x4(%ebp),%ebx
  1012f6:	c9                   	leave  
  1012f7:	c3                   	ret    

001012f8 <cpu_op_rola>:
  1012f8:	55                   	push   %ebp
  1012f9:	89 e5                	mov    %esp,%ebp
  1012fb:	53                   	push   %ebx
  1012fc:	83 ec 08             	sub    $0x8,%esp
  1012ff:	0f b6 1d 83 19 2b 00 	movzbl 0x2b1983,%ebx
  101306:	8d 04 1b             	lea    (%ebx,%ebx,1),%eax
  101309:	8a 1d 86 19 2b 00    	mov    0x2b1986,%bl
  10130f:	83 e3 01             	and    $0x1,%ebx
  101312:	09 c3                	or     %eax,%ebx
  101314:	31 c0                	xor    %eax,%eax
  101316:	81 fb ff 00 00 00    	cmp    $0xff,%ebx
  10131c:	0f 9f c0             	setg   %al
  10131f:	50                   	push   %eax
  101320:	6a 00                	push   $0x0
  101322:	68 86 19 2b 00       	push   $0x2b1986
  101327:	e8 8c 40 00 00       	call   1053b8 <common_modify_bitb>
  10132c:	88 1d 83 19 2b 00    	mov    %bl,0x2b1983
  101332:	a0 86 19 2b 00       	mov    0x2b1986,%al
  101337:	83 e0 7d             	and    $0x7d,%eax
  10133a:	0f b6 db             	movzbl %bl,%ebx
  10133d:	0a 83 80 76 10 00    	or     0x107680(%ebx),%al
  101343:	a2 86 19 2b 00       	mov    %al,0x2b1986
  101348:	83 c4 10             	add    $0x10,%esp
  10134b:	8b 5d fc             	mov    -0x4(%ebp),%ebx
  10134e:	c9                   	leave  
  10134f:	c3                   	ret    

00101350 <cpu_op_rora>:
  101350:	55                   	push   %ebp
  101351:	89 e5                	mov    %esp,%ebp
  101353:	53                   	push   %ebx
  101354:	83 ec 08             	sub    $0x8,%esp
  101357:	8a 1d 86 19 2b 00    	mov    0x2b1986,%bl
  10135d:	83 e3 01             	and    $0x1,%ebx
  101360:	a0 83 19 2b 00       	mov    0x2b1983,%al
  101365:	83 e0 01             	and    $0x1,%eax
  101368:	50                   	push   %eax
  101369:	6a 00                	push   $0x0
  10136b:	68 86 19 2b 00       	push   $0x2b1986
  101370:	e8 43 40 00 00       	call   1053b8 <common_modify_bitb>
  101375:	a0 83 19 2b 00       	mov    0x2b1983,%al
  10137a:	d0 e8                	shr    %al
  10137c:	89 da                	mov    %ebx,%edx
  10137e:	c1 e2 07             	shl    $0x7,%edx
  101381:	09 d0                	or     %edx,%eax
  101383:	a2 83 19 2b 00       	mov    %al,0x2b1983
  101388:	83 c4 0c             	add    $0xc,%esp
  10138b:	84 c0                	test   %al,%al
  10138d:	0f 94 c0             	sete   %al
  101390:	0f b6 c0             	movzbl %al,%eax
  101393:	50                   	push   %eax
  101394:	6a 01                	push   $0x1
  101396:	68 86 19 2b 00       	push   $0x2b1986
  10139b:	e8 18 40 00 00       	call   1053b8 <common_modify_bitb>
  1013a0:	83 c4 0c             	add    $0xc,%esp
  1013a3:	53                   	push   %ebx
  1013a4:	6a 07                	push   $0x7
  1013a6:	68 86 19 2b 00       	push   $0x2b1986
  1013ab:	e8 08 40 00 00       	call   1053b8 <common_modify_bitb>
  1013b0:	83 c4 10             	add    $0x10,%esp
  1013b3:	8b 5d fc             	mov    -0x4(%ebp),%ebx
  1013b6:	c9                   	leave  
  1013b7:	c3                   	ret    

001013b8 <cpu_op_cmp>:
  1013b8:	55                   	push   %ebp
  1013b9:	89 e5                	mov    %esp,%ebp
  1013bb:	53                   	push   %ebx
  1013bc:	83 ec 08             	sub    $0x8,%esp
  1013bf:	0f b6 1d 83 19 2b 00 	movzbl 0x2b1983,%ebx
  1013c6:	2b 1d 60 11 2b 00    	sub    0x2b1160,%ebx
  1013cc:	89 d8                	mov    %ebx,%eax
  1013ce:	f7 d0                	not    %eax
  1013d0:	c1 e8 1f             	shr    $0x1f,%eax
  1013d3:	50                   	push   %eax
  1013d4:	6a 00                	push   $0x0
  1013d6:	68 86 19 2b 00       	push   $0x2b1986
  1013db:	e8 d8 3f 00 00       	call   1053b8 <common_modify_bitb>
  1013e0:	83 c4 0c             	add    $0xc,%esp
  1013e3:	31 c0                	xor    %eax,%eax
  1013e5:	85 db                	test   %ebx,%ebx
  1013e7:	0f 94 c0             	sete   %al
  1013ea:	50                   	push   %eax
  1013eb:	6a 01                	push   $0x1
  1013ed:	68 86 19 2b 00       	push   $0x2b1986
  1013f2:	e8 c1 3f 00 00       	call   1053b8 <common_modify_bitb>
  1013f7:	83 c4 0c             	add    $0xc,%esp
  1013fa:	c1 fb 07             	sar    $0x7,%ebx
  1013fd:	83 e3 01             	and    $0x1,%ebx
  101400:	53                   	push   %ebx
  101401:	6a 07                	push   $0x7
  101403:	68 86 19 2b 00       	push   $0x2b1986
  101408:	e8 ab 3f 00 00       	call   1053b8 <common_modify_bitb>
  10140d:	83 c4 10             	add    $0x10,%esp
  101410:	8b 5d fc             	mov    -0x4(%ebp),%ebx
  101413:	c9                   	leave  
  101414:	c3                   	ret    
  101415:	8d 76 00             	lea    0x0(%esi),%esi

00101418 <cpu_op_cpx>:
  101418:	55                   	push   %ebp
  101419:	89 e5                	mov    %esp,%ebp
  10141b:	53                   	push   %ebx
  10141c:	83 ec 08             	sub    $0x8,%esp
  10141f:	0f b6 1d 84 19 2b 00 	movzbl 0x2b1984,%ebx
  101426:	2b 1d 60 11 2b 00    	sub    0x2b1160,%ebx
  10142c:	89 d8                	mov    %ebx,%eax
  10142e:	f7 d0                	not    %eax
  101430:	c1 e8 1f             	shr    $0x1f,%eax
  101433:	50                   	push   %eax
  101434:	6a 00                	push   $0x0
  101436:	68 86 19 2b 00       	push   $0x2b1986
  10143b:	e8 78 3f 00 00       	call   1053b8 <common_modify_bitb>
  101440:	83 c4 0c             	add    $0xc,%esp
  101443:	31 c0                	xor    %eax,%eax
  101445:	85 db                	test   %ebx,%ebx
  101447:	0f 94 c0             	sete   %al
  10144a:	50                   	push   %eax
  10144b:	6a 01                	push   $0x1
  10144d:	68 86 19 2b 00       	push   $0x2b1986
  101452:	e8 61 3f 00 00       	call   1053b8 <common_modify_bitb>
  101457:	83 c4 0c             	add    $0xc,%esp
  10145a:	c1 fb 07             	sar    $0x7,%ebx
  10145d:	83 e3 01             	and    $0x1,%ebx
  101460:	53                   	push   %ebx
  101461:	6a 07                	push   $0x7
  101463:	68 86 19 2b 00       	push   $0x2b1986
  101468:	e8 4b 3f 00 00       	call   1053b8 <common_modify_bitb>
  10146d:	83 c4 10             	add    $0x10,%esp
  101470:	8b 5d fc             	mov    -0x4(%ebp),%ebx
  101473:	c9                   	leave  
  101474:	c3                   	ret    
  101475:	8d 76 00             	lea    0x0(%esi),%esi

00101478 <cpu_op_cpy>:
  101478:	55                   	push   %ebp
  101479:	89 e5                	mov    %esp,%ebp
  10147b:	53                   	push   %ebx
  10147c:	83 ec 08             	sub    $0x8,%esp
  10147f:	0f b6 1d 85 19 2b 00 	movzbl 0x2b1985,%ebx
  101486:	2b 1d 60 11 2b 00    	sub    0x2b1160,%ebx
  10148c:	89 d8                	mov    %ebx,%eax
  10148e:	f7 d0                	not    %eax
  101490:	c1 e8 1f             	shr    $0x1f,%eax
  101493:	50                   	push   %eax
  101494:	6a 00                	push   $0x0
  101496:	68 86 19 2b 00       	push   $0x2b1986
  10149b:	e8 18 3f 00 00       	call   1053b8 <common_modify_bitb>
  1014a0:	83 c4 0c             	add    $0xc,%esp
  1014a3:	31 c0                	xor    %eax,%eax
  1014a5:	85 db                	test   %ebx,%ebx
  1014a7:	0f 94 c0             	sete   %al
  1014aa:	50                   	push   %eax
  1014ab:	6a 01                	push   $0x1
  1014ad:	68 86 19 2b 00       	push   $0x2b1986
  1014b2:	e8 01 3f 00 00       	call   1053b8 <common_modify_bitb>
  1014b7:	83 c4 0c             	add    $0xc,%esp
  1014ba:	c1 fb 07             	sar    $0x7,%ebx
  1014bd:	83 e3 01             	and    $0x1,%ebx
  1014c0:	53                   	push   %ebx
  1014c1:	6a 07                	push   $0x7
  1014c3:	68 86 19 2b 00       	push   $0x2b1986
  1014c8:	e8 eb 3e 00 00       	call   1053b8 <common_modify_bitb>
  1014cd:	83 c4 10             	add    $0x10,%esp
  1014d0:	8b 5d fc             	mov    -0x4(%ebp),%ebx
  1014d3:	c9                   	leave  
  1014d4:	c3                   	ret    
  1014d5:	8d 76 00             	lea    0x0(%esi),%esi

001014d8 <cpu_op_clc>:
  1014d8:	55                   	push   %ebp
  1014d9:	89 e5                	mov    %esp,%ebp
  1014db:	83 ec 10             	sub    $0x10,%esp
  1014de:	6a 00                	push   $0x0
  1014e0:	68 86 19 2b 00       	push   $0x2b1986
  1014e5:	e8 9e 3e 00 00       	call   105388 <common_unset_bitb>
  1014ea:	83 c4 10             	add    $0x10,%esp
  1014ed:	c9                   	leave  
  1014ee:	c3                   	ret    
  1014ef:	90                   	nop

001014f0 <cpu_op_cld>:
  1014f0:	55                   	push   %ebp
  1014f1:	89 e5                	mov    %esp,%ebp
  1014f3:	83 ec 10             	sub    $0x10,%esp
  1014f6:	6a 03                	push   $0x3
  1014f8:	68 86 19 2b 00       	push   $0x2b1986
  1014fd:	e8 86 3e 00 00       	call   105388 <common_unset_bitb>
  101502:	83 c4 10             	add    $0x10,%esp
  101505:	c9                   	leave  
  101506:	c3                   	ret    
  101507:	90                   	nop

00101508 <cpu_op_cli>:
  101508:	55                   	push   %ebp
  101509:	89 e5                	mov    %esp,%ebp
  10150b:	83 ec 10             	sub    $0x10,%esp
  10150e:	6a 02                	push   $0x2
  101510:	68 86 19 2b 00       	push   $0x2b1986
  101515:	e8 6e 3e 00 00       	call   105388 <common_unset_bitb>
  10151a:	83 c4 10             	add    $0x10,%esp
  10151d:	c9                   	leave  
  10151e:	c3                   	ret    
  10151f:	90                   	nop

00101520 <cpu_op_clv>:
  101520:	55                   	push   %ebp
  101521:	89 e5                	mov    %esp,%ebp
  101523:	83 ec 10             	sub    $0x10,%esp
  101526:	6a 06                	push   $0x6
  101528:	68 86 19 2b 00       	push   $0x2b1986
  10152d:	e8 56 3e 00 00       	call   105388 <common_unset_bitb>
  101532:	83 c4 10             	add    $0x10,%esp
  101535:	c9                   	leave  
  101536:	c3                   	ret    
  101537:	90                   	nop

00101538 <cpu_op_sec>:
  101538:	55                   	push   %ebp
  101539:	89 e5                	mov    %esp,%ebp
  10153b:	83 ec 10             	sub    $0x10,%esp
  10153e:	6a 00                	push   $0x0
  101540:	68 86 19 2b 00       	push   $0x2b1986
  101545:	e8 26 3e 00 00       	call   105370 <common_set_bitb>
  10154a:	83 c4 10             	add    $0x10,%esp
  10154d:	c9                   	leave  
  10154e:	c3                   	ret    
  10154f:	90                   	nop

00101550 <cpu_op_sed>:
  101550:	55                   	push   %ebp
  101551:	89 e5                	mov    %esp,%ebp
  101553:	83 ec 10             	sub    $0x10,%esp
  101556:	6a 03                	push   $0x3
  101558:	68 86 19 2b 00       	push   $0x2b1986
  10155d:	e8 0e 3e 00 00       	call   105370 <common_set_bitb>
  101562:	83 c4 10             	add    $0x10,%esp
  101565:	c9                   	leave  
  101566:	c3                   	ret    
  101567:	90                   	nop

00101568 <cpu_op_sei>:
  101568:	55                   	push   %ebp
  101569:	89 e5                	mov    %esp,%ebp
  10156b:	83 ec 10             	sub    $0x10,%esp
  10156e:	6a 02                	push   $0x2
  101570:	68 86 19 2b 00       	push   $0x2b1986
  101575:	e8 f6 3d 00 00       	call   105370 <common_set_bitb>
  10157a:	83 c4 10             	add    $0x10,%esp
  10157d:	c9                   	leave  
  10157e:	c3                   	ret    
  10157f:	90                   	nop

00101580 <____FE____>:
  101580:	55                   	push   %ebp
  101581:	89 e5                	mov    %esp,%ebp
  101583:	5d                   	pop    %ebp
  101584:	c3                   	ret    
  101585:	8d 76 00             	lea    0x0(%esi),%esi

00101588 <cpu_op_rts>:
  101588:	55                   	push   %ebp
  101589:	89 e5                	mov    %esp,%ebp
  10158b:	a0 82 19 2b 00       	mov    0x2b1982,%al
  101590:	83 c0 02             	add    $0x2,%eax
  101593:	a2 82 19 2b 00       	mov    %al,0x2b1982
  101598:	0f b6 c0             	movzbl %al,%eax
  10159b:	8d 90 00 01 00 00    	lea    0x100(%eax),%edx
  1015a1:	0f b7 d2             	movzwl %dx,%edx
  1015a4:	0f b6 92 c0 1d 2b 00 	movzbl 0x2b1dc0(%edx),%edx
  1015ab:	c1 e2 08             	shl    $0x8,%edx
  1015ae:	05 ff 00 00 00       	add    $0xff,%eax
  1015b3:	0f b7 c0             	movzwl %ax,%eax
  1015b6:	0f b6 80 c0 1d 2b 00 	movzbl 0x2b1dc0(%eax),%eax
  1015bd:	8d 44 02 01          	lea    0x1(%edx,%eax,1),%eax
  1015c1:	66 a3 80 19 2b 00    	mov    %ax,0x2b1980
  1015c7:	5d                   	pop    %ebp
  1015c8:	c3                   	ret    
  1015c9:	8d 76 00             	lea    0x0(%esi),%esi

001015cc <cpu_op_plp>:
  1015cc:	55                   	push   %ebp
  1015cd:	89 e5                	mov    %esp,%ebp
  1015cf:	a0 82 19 2b 00       	mov    0x2b1982,%al
  1015d4:	40                   	inc    %eax
  1015d5:	a2 82 19 2b 00       	mov    %al,0x2b1982
  1015da:	0f b6 c0             	movzbl %al,%eax
  1015dd:	8a 80 c0 1e 2b 00    	mov    0x2b1ec0(%eax),%al
  1015e3:	83 e0 cf             	and    $0xffffffcf,%eax
  1015e6:	83 c8 20             	or     $0x20,%eax
  1015e9:	a2 86 19 2b 00       	mov    %al,0x2b1986
  1015ee:	5d                   	pop    %ebp
  1015ef:	c3                   	ret    

001015f0 <cpu_op_pla>:
  1015f0:	55                   	push   %ebp
  1015f1:	89 e5                	mov    %esp,%ebp
  1015f3:	a0 82 19 2b 00       	mov    0x2b1982,%al
  1015f8:	40                   	inc    %eax
  1015f9:	a2 82 19 2b 00       	mov    %al,0x2b1982
  1015fe:	0f b6 c0             	movzbl %al,%eax
  101601:	0f b6 90 c0 1e 2b 00 	movzbl 0x2b1ec0(%eax),%edx
  101608:	88 15 83 19 2b 00    	mov    %dl,0x2b1983
  10160e:	a0 86 19 2b 00       	mov    0x2b1986,%al
  101613:	83 e0 7d             	and    $0x7d,%eax
  101616:	0a 82 80 76 10 00    	or     0x107680(%edx),%al
  10161c:	a2 86 19 2b 00       	mov    %al,0x2b1986
  101621:	5d                   	pop    %ebp
  101622:	c3                   	ret    
  101623:	90                   	nop

00101624 <cpu_op_rti>:
  101624:	55                   	push   %ebp
  101625:	89 e5                	mov    %esp,%ebp
  101627:	a0 82 19 2b 00       	mov    0x2b1982,%al
  10162c:	8d 50 01             	lea    0x1(%eax),%edx
  10162f:	0f b6 d2             	movzbl %dl,%edx
  101632:	8a 92 c0 1e 2b 00    	mov    0x2b1ec0(%edx),%dl
  101638:	83 ca 20             	or     $0x20,%edx
  10163b:	88 15 86 19 2b 00    	mov    %dl,0x2b1986
  101641:	83 c0 03             	add    $0x3,%eax
  101644:	a2 82 19 2b 00       	mov    %al,0x2b1982
  101649:	0f b6 c0             	movzbl %al,%eax
  10164c:	8d 90 00 01 00 00    	lea    0x100(%eax),%edx
  101652:	0f b7 d2             	movzwl %dx,%edx
  101655:	0f b6 92 c0 1d 2b 00 	movzbl 0x2b1dc0(%edx),%edx
  10165c:	c1 e2 08             	shl    $0x8,%edx
  10165f:	05 ff 00 00 00       	add    $0xff,%eax
  101664:	0f b7 c0             	movzwl %ax,%eax
  101667:	0f b6 80 c0 1d 2b 00 	movzbl 0x2b1dc0(%eax),%eax
  10166e:	01 d0                	add    %edx,%eax
  101670:	66 a3 80 19 2b 00    	mov    %ax,0x2b1980
  101676:	5d                   	pop    %ebp
  101677:	c3                   	ret    

00101678 <cpu_op_sty>:
  101678:	55                   	push   %ebp
  101679:	89 e5                	mov    %esp,%ebp
  10167b:	56                   	push   %esi
  10167c:	53                   	push   %ebx
  10167d:	8a 1d 85 19 2b 00    	mov    0x2b1985,%bl
  101683:	a1 64 11 2b 00       	mov    0x2b1164,%eax
  101688:	66 3d 14 40          	cmp    $0x4014,%ax
  10168c:	74 32                	je     1016c0 <cpu_op_sty+0x48>
  10168e:	0f b6 f3             	movzbl %bl,%esi
  101691:	0f b7 c8             	movzwl %ax,%ecx
  101694:	89 c2                	mov    %eax,%edx
  101696:	66 c1 ea 0d          	shr    $0xd,%dx
  10169a:	66 83 fa 01          	cmp    $0x1,%dx
  10169e:	74 7b                	je     10171b <cpu_op_sty+0xa3>
  1016a0:	72 0c                	jb     1016ae <cpu_op_sty+0x36>
  1016a2:	66 83 fa 02          	cmp    $0x2,%dx
  1016a6:	74 5f                	je     101707 <cpu_op_sty+0x8f>
  1016a8:	66 83 fa 03          	cmp    $0x3,%dx
  1016ac:	75 45                	jne    1016f3 <cpu_op_sty+0x7b>
  1016ae:	25 ff 07 00 00       	and    $0x7ff,%eax
  1016b3:	88 98 c0 1d 2b 00    	mov    %bl,0x2b1dc0(%eax)
  1016b9:	8d 65 f8             	lea    -0x8(%ebp),%esp
  1016bc:	5b                   	pop    %ebx
  1016bd:	5e                   	pop    %esi
  1016be:	5d                   	pop    %ebp
  1016bf:	c3                   	ret    
  1016c0:	c1 e3 08             	shl    $0x8,%ebx
  1016c3:	8d b3 00 01 00 00    	lea    0x100(%ebx),%esi
  1016c9:	8d 76 00             	lea    0x0(%esi),%esi
  1016cc:	83 ec 0c             	sub    $0xc,%esp
  1016cf:	89 d8                	mov    %ebx,%eax
  1016d1:	25 ff 07 00 00       	and    $0x7ff,%eax
  1016d6:	0f b6 80 c0 1d 2b 00 	movzbl 0x2b1dc0(%eax),%eax
  1016dd:	50                   	push   %eax
  1016de:	e8 49 f6 ff ff       	call   100d2c <ppu_sprram_write>
  1016e3:	43                   	inc    %ebx
  1016e4:	83 c4 10             	add    $0x10,%esp
  1016e7:	66 39 de             	cmp    %bx,%si
  1016ea:	75 e0                	jne    1016cc <cpu_op_sty+0x54>
  1016ec:	8d 65 f8             	lea    -0x8(%ebp),%esp
  1016ef:	5b                   	pop    %ebx
  1016f0:	5e                   	pop    %esi
  1016f1:	5d                   	pop    %ebp
  1016f2:	c3                   	ret    
  1016f3:	83 ec 08             	sub    $0x8,%esp
  1016f6:	56                   	push   %esi
  1016f7:	51                   	push   %ecx
  1016f8:	e8 73 51 00 00       	call   106870 <mmc_write>
  1016fd:	83 c4 10             	add    $0x10,%esp
  101700:	8d 65 f8             	lea    -0x8(%ebp),%esp
  101703:	5b                   	pop    %ebx
  101704:	5e                   	pop    %esi
  101705:	5d                   	pop    %ebp
  101706:	c3                   	ret    
  101707:	83 ec 08             	sub    $0x8,%esp
  10170a:	56                   	push   %esi
  10170b:	51                   	push   %ecx
  10170c:	e8 07 52 00 00       	call   106918 <psg_io_write>
  101711:	83 c4 10             	add    $0x10,%esp
  101714:	8d 65 f8             	lea    -0x8(%ebp),%esp
  101717:	5b                   	pop    %ebx
  101718:	5e                   	pop    %esi
  101719:	5d                   	pop    %ebp
  10171a:	c3                   	ret    
  10171b:	83 ec 08             	sub    $0x8,%esp
  10171e:	56                   	push   %esi
  10171f:	51                   	push   %ecx
  101720:	e8 fb f2 ff ff       	call   100a20 <ppu_io_write>
  101725:	83 c4 10             	add    $0x10,%esp
  101728:	8d 65 f8             	lea    -0x8(%ebp),%esp
  10172b:	5b                   	pop    %ebx
  10172c:	5e                   	pop    %esi
  10172d:	5d                   	pop    %ebp
  10172e:	c3                   	ret    
  10172f:	90                   	nop

00101730 <cpu_op_sta>:
  101730:	55                   	push   %ebp
  101731:	89 e5                	mov    %esp,%ebp
  101733:	56                   	push   %esi
  101734:	53                   	push   %ebx
  101735:	8a 1d 83 19 2b 00    	mov    0x2b1983,%bl
  10173b:	a1 64 11 2b 00       	mov    0x2b1164,%eax
  101740:	66 3d 14 40          	cmp    $0x4014,%ax
  101744:	74 32                	je     101778 <cpu_op_sta+0x48>
  101746:	0f b6 f3             	movzbl %bl,%esi
  101749:	0f b7 c8             	movzwl %ax,%ecx
  10174c:	89 c2                	mov    %eax,%edx
  10174e:	66 c1 ea 0d          	shr    $0xd,%dx
  101752:	66 83 fa 01          	cmp    $0x1,%dx
  101756:	74 7b                	je     1017d3 <cpu_op_sta+0xa3>
  101758:	72 0c                	jb     101766 <cpu_op_sta+0x36>
  10175a:	66 83 fa 02          	cmp    $0x2,%dx
  10175e:	74 5f                	je     1017bf <cpu_op_sta+0x8f>
  101760:	66 83 fa 03          	cmp    $0x3,%dx
  101764:	75 45                	jne    1017ab <cpu_op_sta+0x7b>
  101766:	25 ff 07 00 00       	and    $0x7ff,%eax
  10176b:	88 98 c0 1d 2b 00    	mov    %bl,0x2b1dc0(%eax)
  101771:	8d 65 f8             	lea    -0x8(%ebp),%esp
  101774:	5b                   	pop    %ebx
  101775:	5e                   	pop    %esi
  101776:	5d                   	pop    %ebp
  101777:	c3                   	ret    
  101778:	c1 e3 08             	shl    $0x8,%ebx
  10177b:	8d b3 00 01 00 00    	lea    0x100(%ebx),%esi
  101781:	8d 76 00             	lea    0x0(%esi),%esi
  101784:	83 ec 0c             	sub    $0xc,%esp
  101787:	89 d8                	mov    %ebx,%eax
  101789:	25 ff 07 00 00       	and    $0x7ff,%eax
  10178e:	0f b6 80 c0 1d 2b 00 	movzbl 0x2b1dc0(%eax),%eax
  101795:	50                   	push   %eax
  101796:	e8 91 f5 ff ff       	call   100d2c <ppu_sprram_write>
  10179b:	43                   	inc    %ebx
  10179c:	83 c4 10             	add    $0x10,%esp
  10179f:	66 39 de             	cmp    %bx,%si
  1017a2:	75 e0                	jne    101784 <cpu_op_sta+0x54>
  1017a4:	8d 65 f8             	lea    -0x8(%ebp),%esp
  1017a7:	5b                   	pop    %ebx
  1017a8:	5e                   	pop    %esi
  1017a9:	5d                   	pop    %ebp
  1017aa:	c3                   	ret    
  1017ab:	83 ec 08             	sub    $0x8,%esp
  1017ae:	56                   	push   %esi
  1017af:	51                   	push   %ecx
  1017b0:	e8 bb 50 00 00       	call   106870 <mmc_write>
  1017b5:	83 c4 10             	add    $0x10,%esp
  1017b8:	8d 65 f8             	lea    -0x8(%ebp),%esp
  1017bb:	5b                   	pop    %ebx
  1017bc:	5e                   	pop    %esi
  1017bd:	5d                   	pop    %ebp
  1017be:	c3                   	ret    
  1017bf:	83 ec 08             	sub    $0x8,%esp
  1017c2:	56                   	push   %esi
  1017c3:	51                   	push   %ecx
  1017c4:	e8 4f 51 00 00       	call   106918 <psg_io_write>
  1017c9:	83 c4 10             	add    $0x10,%esp
  1017cc:	8d 65 f8             	lea    -0x8(%ebp),%esp
  1017cf:	5b                   	pop    %ebx
  1017d0:	5e                   	pop    %esi
  1017d1:	5d                   	pop    %ebp
  1017d2:	c3                   	ret    
  1017d3:	83 ec 08             	sub    $0x8,%esp
  1017d6:	56                   	push   %esi
  1017d7:	51                   	push   %ecx
  1017d8:	e8 43 f2 ff ff       	call   100a20 <ppu_io_write>
  1017dd:	83 c4 10             	add    $0x10,%esp
  1017e0:	8d 65 f8             	lea    -0x8(%ebp),%esp
  1017e3:	5b                   	pop    %ebx
  1017e4:	5e                   	pop    %esi
  1017e5:	5d                   	pop    %ebp
  1017e6:	c3                   	ret    
  1017e7:	90                   	nop

001017e8 <cpu_op_stx>:
  1017e8:	55                   	push   %ebp
  1017e9:	89 e5                	mov    %esp,%ebp
  1017eb:	56                   	push   %esi
  1017ec:	53                   	push   %ebx
  1017ed:	8a 1d 84 19 2b 00    	mov    0x2b1984,%bl
  1017f3:	a1 64 11 2b 00       	mov    0x2b1164,%eax
  1017f8:	66 3d 14 40          	cmp    $0x4014,%ax
  1017fc:	74 32                	je     101830 <cpu_op_stx+0x48>
  1017fe:	0f b6 f3             	movzbl %bl,%esi
  101801:	0f b7 c8             	movzwl %ax,%ecx
  101804:	89 c2                	mov    %eax,%edx
  101806:	66 c1 ea 0d          	shr    $0xd,%dx
  10180a:	66 83 fa 01          	cmp    $0x1,%dx
  10180e:	74 7b                	je     10188b <cpu_op_stx+0xa3>
  101810:	72 0c                	jb     10181e <cpu_op_stx+0x36>
  101812:	66 83 fa 02          	cmp    $0x2,%dx
  101816:	74 5f                	je     101877 <cpu_op_stx+0x8f>
  101818:	66 83 fa 03          	cmp    $0x3,%dx
  10181c:	75 45                	jne    101863 <cpu_op_stx+0x7b>
  10181e:	25 ff 07 00 00       	and    $0x7ff,%eax
  101823:	88 98 c0 1d 2b 00    	mov    %bl,0x2b1dc0(%eax)
  101829:	8d 65 f8             	lea    -0x8(%ebp),%esp
  10182c:	5b                   	pop    %ebx
  10182d:	5e                   	pop    %esi
  10182e:	5d                   	pop    %ebp
  10182f:	c3                   	ret    
  101830:	c1 e3 08             	shl    $0x8,%ebx
  101833:	8d b3 00 01 00 00    	lea    0x100(%ebx),%esi
  101839:	8d 76 00             	lea    0x0(%esi),%esi
  10183c:	83 ec 0c             	sub    $0xc,%esp
  10183f:	89 d8                	mov    %ebx,%eax
  101841:	25 ff 07 00 00       	and    $0x7ff,%eax
  101846:	0f b6 80 c0 1d 2b 00 	movzbl 0x2b1dc0(%eax),%eax
  10184d:	50                   	push   %eax
  10184e:	e8 d9 f4 ff ff       	call   100d2c <ppu_sprram_write>
  101853:	43                   	inc    %ebx
  101854:	83 c4 10             	add    $0x10,%esp
  101857:	66 39 de             	cmp    %bx,%si
  10185a:	75 e0                	jne    10183c <cpu_op_stx+0x54>
  10185c:	8d 65 f8             	lea    -0x8(%ebp),%esp
  10185f:	5b                   	pop    %ebx
  101860:	5e                   	pop    %esi
  101861:	5d                   	pop    %ebp
  101862:	c3                   	ret    
  101863:	83 ec 08             	sub    $0x8,%esp
  101866:	56                   	push   %esi
  101867:	51                   	push   %ecx
  101868:	e8 03 50 00 00       	call   106870 <mmc_write>
  10186d:	83 c4 10             	add    $0x10,%esp
  101870:	8d 65 f8             	lea    -0x8(%ebp),%esp
  101873:	5b                   	pop    %ebx
  101874:	5e                   	pop    %esi
  101875:	5d                   	pop    %ebp
  101876:	c3                   	ret    
  101877:	83 ec 08             	sub    $0x8,%esp
  10187a:	56                   	push   %esi
  10187b:	51                   	push   %ecx
  10187c:	e8 97 50 00 00       	call   106918 <psg_io_write>
  101881:	83 c4 10             	add    $0x10,%esp
  101884:	8d 65 f8             	lea    -0x8(%ebp),%esp
  101887:	5b                   	pop    %ebx
  101888:	5e                   	pop    %esi
  101889:	5d                   	pop    %ebp
  10188a:	c3                   	ret    
  10188b:	83 ec 08             	sub    $0x8,%esp
  10188e:	56                   	push   %esi
  10188f:	51                   	push   %ecx
  101890:	e8 8b f1 ff ff       	call   100a20 <ppu_io_write>
  101895:	83 c4 10             	add    $0x10,%esp
  101898:	8d 65 f8             	lea    -0x8(%ebp),%esp
  10189b:	5b                   	pop    %ebx
  10189c:	5e                   	pop    %esi
  10189d:	5d                   	pop    %ebp
  10189e:	c3                   	ret    
  10189f:	90                   	nop

001018a0 <cpu_op_axs>:
  1018a0:	55                   	push   %ebp
  1018a1:	89 e5                	mov    %esp,%ebp
  1018a3:	56                   	push   %esi
  1018a4:	53                   	push   %ebx
  1018a5:	8a 1d 83 19 2b 00    	mov    0x2b1983,%bl
  1018ab:	22 1d 84 19 2b 00    	and    0x2b1984,%bl
  1018b1:	a1 64 11 2b 00       	mov    0x2b1164,%eax
  1018b6:	66 3d 14 40          	cmp    $0x4014,%ax
  1018ba:	74 34                	je     1018f0 <cpu_op_axs+0x50>
  1018bc:	0f b6 f3             	movzbl %bl,%esi
  1018bf:	0f b7 c8             	movzwl %ax,%ecx
  1018c2:	89 c2                	mov    %eax,%edx
  1018c4:	66 c1 ea 0d          	shr    $0xd,%dx
  1018c8:	66 83 fa 01          	cmp    $0x1,%dx
  1018cc:	74 7d                	je     10194b <cpu_op_axs+0xab>
  1018ce:	72 0c                	jb     1018dc <cpu_op_axs+0x3c>
  1018d0:	66 83 fa 02          	cmp    $0x2,%dx
  1018d4:	74 61                	je     101937 <cpu_op_axs+0x97>
  1018d6:	66 83 fa 03          	cmp    $0x3,%dx
  1018da:	75 47                	jne    101923 <cpu_op_axs+0x83>
  1018dc:	25 ff 07 00 00       	and    $0x7ff,%eax
  1018e1:	88 98 c0 1d 2b 00    	mov    %bl,0x2b1dc0(%eax)
  1018e7:	8d 65 f8             	lea    -0x8(%ebp),%esp
  1018ea:	5b                   	pop    %ebx
  1018eb:	5e                   	pop    %esi
  1018ec:	5d                   	pop    %ebp
  1018ed:	c3                   	ret    
  1018ee:	66 90                	xchg   %ax,%ax
  1018f0:	c1 e3 08             	shl    $0x8,%ebx
  1018f3:	8d b3 00 01 00 00    	lea    0x100(%ebx),%esi
  1018f9:	8d 76 00             	lea    0x0(%esi),%esi
  1018fc:	83 ec 0c             	sub    $0xc,%esp
  1018ff:	89 d8                	mov    %ebx,%eax
  101901:	25 ff 07 00 00       	and    $0x7ff,%eax
  101906:	0f b6 80 c0 1d 2b 00 	movzbl 0x2b1dc0(%eax),%eax
  10190d:	50                   	push   %eax
  10190e:	e8 19 f4 ff ff       	call   100d2c <ppu_sprram_write>
  101913:	43                   	inc    %ebx
  101914:	83 c4 10             	add    $0x10,%esp
  101917:	66 39 de             	cmp    %bx,%si
  10191a:	75 e0                	jne    1018fc <cpu_op_axs+0x5c>
  10191c:	8d 65 f8             	lea    -0x8(%ebp),%esp
  10191f:	5b                   	pop    %ebx
  101920:	5e                   	pop    %esi
  101921:	5d                   	pop    %ebp
  101922:	c3                   	ret    
  101923:	83 ec 08             	sub    $0x8,%esp
  101926:	56                   	push   %esi
  101927:	51                   	push   %ecx
  101928:	e8 43 4f 00 00       	call   106870 <mmc_write>
  10192d:	83 c4 10             	add    $0x10,%esp
  101930:	8d 65 f8             	lea    -0x8(%ebp),%esp
  101933:	5b                   	pop    %ebx
  101934:	5e                   	pop    %esi
  101935:	5d                   	pop    %ebp
  101936:	c3                   	ret    
  101937:	83 ec 08             	sub    $0x8,%esp
  10193a:	56                   	push   %esi
  10193b:	51                   	push   %ecx
  10193c:	e8 d7 4f 00 00       	call   106918 <psg_io_write>
  101941:	83 c4 10             	add    $0x10,%esp
  101944:	8d 65 f8             	lea    -0x8(%ebp),%esp
  101947:	5b                   	pop    %ebx
  101948:	5e                   	pop    %esi
  101949:	5d                   	pop    %ebp
  10194a:	c3                   	ret    
  10194b:	83 ec 08             	sub    $0x8,%esp
  10194e:	56                   	push   %esi
  10194f:	51                   	push   %ecx
  101950:	e8 cb f0 ff ff       	call   100a20 <ppu_io_write>
  101955:	83 c4 10             	add    $0x10,%esp
  101958:	8d 65 f8             	lea    -0x8(%ebp),%esp
  10195b:	5b                   	pop    %ebx
  10195c:	5e                   	pop    %esi
  10195d:	5d                   	pop    %ebp
  10195e:	c3                   	ret    
  10195f:	90                   	nop

00101960 <cpu_op_pha>:
  101960:	55                   	push   %ebp
  101961:	89 e5                	mov    %esp,%ebp
  101963:	0f b6 05 82 19 2b 00 	movzbl 0x2b1982,%eax
  10196a:	8d 50 ff             	lea    -0x1(%eax),%edx
  10196d:	88 15 82 19 2b 00    	mov    %dl,0x2b1982
  101973:	8a 0d 83 19 2b 00    	mov    0x2b1983,%cl
  101979:	88 88 c0 1e 2b 00    	mov    %cl,0x2b1ec0(%eax)
  10197f:	5d                   	pop    %ebp
  101980:	c3                   	ret    
  101981:	8d 76 00             	lea    0x0(%esi),%esi

00101984 <cpu_op_php>:
  101984:	55                   	push   %ebp
  101985:	89 e5                	mov    %esp,%ebp
  101987:	8a 15 86 19 2b 00    	mov    0x2b1986,%dl
  10198d:	83 ca 30             	or     $0x30,%edx
  101990:	0f b6 05 82 19 2b 00 	movzbl 0x2b1982,%eax
  101997:	8d 48 ff             	lea    -0x1(%eax),%ecx
  10199a:	88 0d 82 19 2b 00    	mov    %cl,0x2b1982
  1019a0:	88 90 c0 1e 2b 00    	mov    %dl,0x2b1ec0(%eax)
  1019a6:	5d                   	pop    %ebp
  1019a7:	c3                   	ret    

001019a8 <cpu_op_axa>:
  1019a8:	55                   	push   %ebp
  1019a9:	89 e5                	mov    %esp,%ebp
  1019ab:	56                   	push   %esi
  1019ac:	53                   	push   %ebx
  1019ad:	8a 1d 83 19 2b 00    	mov    0x2b1983,%bl
  1019b3:	22 1d 84 19 2b 00    	and    0x2b1984,%bl
  1019b9:	a1 64 11 2b 00       	mov    0x2b1164,%eax
  1019be:	22 1d 65 11 2b 00    	and    0x2b1165,%bl
  1019c4:	66 3d 14 40          	cmp    $0x4014,%ax
  1019c8:	74 32                	je     1019fc <cpu_op_axa+0x54>
  1019ca:	0f b6 f3             	movzbl %bl,%esi
  1019cd:	0f b7 c8             	movzwl %ax,%ecx
  1019d0:	89 c2                	mov    %eax,%edx
  1019d2:	66 c1 ea 0d          	shr    $0xd,%dx
  1019d6:	66 83 fa 01          	cmp    $0x1,%dx
  1019da:	74 7b                	je     101a57 <cpu_op_axa+0xaf>
  1019dc:	72 0c                	jb     1019ea <cpu_op_axa+0x42>
  1019de:	66 83 fa 02          	cmp    $0x2,%dx
  1019e2:	74 5f                	je     101a43 <cpu_op_axa+0x9b>
  1019e4:	66 83 fa 03          	cmp    $0x3,%dx
  1019e8:	75 45                	jne    101a2f <cpu_op_axa+0x87>
  1019ea:	25 ff 07 00 00       	and    $0x7ff,%eax
  1019ef:	88 98 c0 1d 2b 00    	mov    %bl,0x2b1dc0(%eax)
  1019f5:	8d 65 f8             	lea    -0x8(%ebp),%esp
  1019f8:	5b                   	pop    %ebx
  1019f9:	5e                   	pop    %esi
  1019fa:	5d                   	pop    %ebp
  1019fb:	c3                   	ret    
  1019fc:	c1 e3 08             	shl    $0x8,%ebx
  1019ff:	8d b3 00 01 00 00    	lea    0x100(%ebx),%esi
  101a05:	8d 76 00             	lea    0x0(%esi),%esi
  101a08:	83 ec 0c             	sub    $0xc,%esp
  101a0b:	89 d8                	mov    %ebx,%eax
  101a0d:	25 ff 07 00 00       	and    $0x7ff,%eax
  101a12:	0f b6 80 c0 1d 2b 00 	movzbl 0x2b1dc0(%eax),%eax
  101a19:	50                   	push   %eax
  101a1a:	e8 0d f3 ff ff       	call   100d2c <ppu_sprram_write>
  101a1f:	43                   	inc    %ebx
  101a20:	83 c4 10             	add    $0x10,%esp
  101a23:	66 39 de             	cmp    %bx,%si
  101a26:	75 e0                	jne    101a08 <cpu_op_axa+0x60>
  101a28:	8d 65 f8             	lea    -0x8(%ebp),%esp
  101a2b:	5b                   	pop    %ebx
  101a2c:	5e                   	pop    %esi
  101a2d:	5d                   	pop    %ebp
  101a2e:	c3                   	ret    
  101a2f:	83 ec 08             	sub    $0x8,%esp
  101a32:	56                   	push   %esi
  101a33:	51                   	push   %ecx
  101a34:	e8 37 4e 00 00       	call   106870 <mmc_write>
  101a39:	83 c4 10             	add    $0x10,%esp
  101a3c:	8d 65 f8             	lea    -0x8(%ebp),%esp
  101a3f:	5b                   	pop    %ebx
  101a40:	5e                   	pop    %esi
  101a41:	5d                   	pop    %ebp
  101a42:	c3                   	ret    
  101a43:	83 ec 08             	sub    $0x8,%esp
  101a46:	56                   	push   %esi
  101a47:	51                   	push   %ecx
  101a48:	e8 cb 4e 00 00       	call   106918 <psg_io_write>
  101a4d:	83 c4 10             	add    $0x10,%esp
  101a50:	8d 65 f8             	lea    -0x8(%ebp),%esp
  101a53:	5b                   	pop    %ebx
  101a54:	5e                   	pop    %esi
  101a55:	5d                   	pop    %ebp
  101a56:	c3                   	ret    
  101a57:	83 ec 08             	sub    $0x8,%esp
  101a5a:	56                   	push   %esi
  101a5b:	51                   	push   %ecx
  101a5c:	e8 bf ef ff ff       	call   100a20 <ppu_io_write>
  101a61:	83 c4 10             	add    $0x10,%esp
  101a64:	8d 65 f8             	lea    -0x8(%ebp),%esp
  101a67:	5b                   	pop    %ebx
  101a68:	5e                   	pop    %esi
  101a69:	5d                   	pop    %ebp
  101a6a:	c3                   	ret    
  101a6b:	90                   	nop

00101a6c <cpu_op_dcm>:
  101a6c:	55                   	push   %ebp
  101a6d:	89 e5                	mov    %esp,%ebp
  101a6f:	56                   	push   %esi
  101a70:	53                   	push   %ebx
  101a71:	a1 60 11 2b 00       	mov    0x2b1160,%eax
  101a76:	8d 58 ff             	lea    -0x1(%eax),%ebx
  101a79:	0f b6 d3             	movzbl %bl,%edx
  101a7c:	89 15 60 11 2b 00    	mov    %edx,0x2b1160
  101a82:	a1 64 11 2b 00       	mov    0x2b1164,%eax
  101a87:	66 3d 14 40          	cmp    $0x4014,%ax
  101a8b:	74 37                	je     101ac4 <cpu_op_dcm+0x58>
  101a8d:	0f b7 f0             	movzwl %ax,%esi
  101a90:	89 c1                	mov    %eax,%ecx
  101a92:	66 c1 e9 0d          	shr    $0xd,%cx
  101a96:	66 83 f9 01          	cmp    $0x1,%cx
  101a9a:	0f 84 8b 00 00 00    	je     101b2b <cpu_op_dcm+0xbf>
  101aa0:	72 0c                	jb     101aae <cpu_op_dcm+0x42>
  101aa2:	66 83 f9 02          	cmp    $0x2,%cx
  101aa6:	74 6b                	je     101b13 <cpu_op_dcm+0xa7>
  101aa8:	66 83 f9 03          	cmp    $0x3,%cx
  101aac:	75 4d                	jne    101afb <cpu_op_dcm+0x8f>
  101aae:	25 ff 07 00 00       	and    $0x7ff,%eax
  101ab3:	88 98 c0 1d 2b 00    	mov    %bl,0x2b1dc0(%eax)
  101ab9:	8d 65 f8             	lea    -0x8(%ebp),%esp
  101abc:	5b                   	pop    %ebx
  101abd:	5e                   	pop    %esi
  101abe:	5d                   	pop    %ebp
  101abf:	e9 f4 f8 ff ff       	jmp    1013b8 <cpu_op_cmp>
  101ac4:	c1 e3 08             	shl    $0x8,%ebx
  101ac7:	8d b3 00 01 00 00    	lea    0x100(%ebx),%esi
  101acd:	8d 76 00             	lea    0x0(%esi),%esi
  101ad0:	83 ec 0c             	sub    $0xc,%esp
  101ad3:	89 d8                	mov    %ebx,%eax
  101ad5:	25 ff 07 00 00       	and    $0x7ff,%eax
  101ada:	0f b6 80 c0 1d 2b 00 	movzbl 0x2b1dc0(%eax),%eax
  101ae1:	50                   	push   %eax
  101ae2:	e8 45 f2 ff ff       	call   100d2c <ppu_sprram_write>
  101ae7:	43                   	inc    %ebx
  101ae8:	83 c4 10             	add    $0x10,%esp
  101aeb:	66 39 de             	cmp    %bx,%si
  101aee:	75 e0                	jne    101ad0 <cpu_op_dcm+0x64>
  101af0:	8d 65 f8             	lea    -0x8(%ebp),%esp
  101af3:	5b                   	pop    %ebx
  101af4:	5e                   	pop    %esi
  101af5:	5d                   	pop    %ebp
  101af6:	e9 bd f8 ff ff       	jmp    1013b8 <cpu_op_cmp>
  101afb:	83 ec 08             	sub    $0x8,%esp
  101afe:	52                   	push   %edx
  101aff:	56                   	push   %esi
  101b00:	e8 6b 4d 00 00       	call   106870 <mmc_write>
  101b05:	83 c4 10             	add    $0x10,%esp
  101b08:	8d 65 f8             	lea    -0x8(%ebp),%esp
  101b0b:	5b                   	pop    %ebx
  101b0c:	5e                   	pop    %esi
  101b0d:	5d                   	pop    %ebp
  101b0e:	e9 a5 f8 ff ff       	jmp    1013b8 <cpu_op_cmp>
  101b13:	83 ec 08             	sub    $0x8,%esp
  101b16:	52                   	push   %edx
  101b17:	56                   	push   %esi
  101b18:	e8 fb 4d 00 00       	call   106918 <psg_io_write>
  101b1d:	83 c4 10             	add    $0x10,%esp
  101b20:	8d 65 f8             	lea    -0x8(%ebp),%esp
  101b23:	5b                   	pop    %ebx
  101b24:	5e                   	pop    %esi
  101b25:	5d                   	pop    %ebp
  101b26:	e9 8d f8 ff ff       	jmp    1013b8 <cpu_op_cmp>
  101b2b:	83 ec 08             	sub    $0x8,%esp
  101b2e:	52                   	push   %edx
  101b2f:	56                   	push   %esi
  101b30:	e8 eb ee ff ff       	call   100a20 <ppu_io_write>
  101b35:	83 c4 10             	add    $0x10,%esp
  101b38:	8d 65 f8             	lea    -0x8(%ebp),%esp
  101b3b:	5b                   	pop    %ebx
  101b3c:	5e                   	pop    %esi
  101b3d:	5d                   	pop    %ebp
  101b3e:	e9 75 f8 ff ff       	jmp    1013b8 <cpu_op_cmp>
  101b43:	90                   	nop

00101b44 <cpu_op_ins>:
  101b44:	55                   	push   %ebp
  101b45:	89 e5                	mov    %esp,%ebp
  101b47:	56                   	push   %esi
  101b48:	53                   	push   %ebx
  101b49:	a1 60 11 2b 00       	mov    0x2b1160,%eax
  101b4e:	8d 58 01             	lea    0x1(%eax),%ebx
  101b51:	0f b6 d3             	movzbl %bl,%edx
  101b54:	89 15 60 11 2b 00    	mov    %edx,0x2b1160
  101b5a:	a1 64 11 2b 00       	mov    0x2b1164,%eax
  101b5f:	66 3d 14 40          	cmp    $0x4014,%ax
  101b63:	74 37                	je     101b9c <cpu_op_ins+0x58>
  101b65:	0f b7 f0             	movzwl %ax,%esi
  101b68:	89 c1                	mov    %eax,%ecx
  101b6a:	66 c1 e9 0d          	shr    $0xd,%cx
  101b6e:	66 83 f9 01          	cmp    $0x1,%cx
  101b72:	0f 84 8b 00 00 00    	je     101c03 <cpu_op_ins+0xbf>
  101b78:	72 0c                	jb     101b86 <cpu_op_ins+0x42>
  101b7a:	66 83 f9 02          	cmp    $0x2,%cx
  101b7e:	74 6b                	je     101beb <cpu_op_ins+0xa7>
  101b80:	66 83 f9 03          	cmp    $0x3,%cx
  101b84:	75 4d                	jne    101bd3 <cpu_op_ins+0x8f>
  101b86:	25 ff 07 00 00       	and    $0x7ff,%eax
  101b8b:	88 98 c0 1d 2b 00    	mov    %bl,0x2b1dc0(%eax)
  101b91:	8d 65 f8             	lea    -0x8(%ebp),%esp
  101b94:	5b                   	pop    %ebx
  101b95:	5e                   	pop    %esi
  101b96:	5d                   	pop    %ebp
  101b97:	e9 04 f6 ff ff       	jmp    1011a0 <cpu_op_sbc>
  101b9c:	c1 e3 08             	shl    $0x8,%ebx
  101b9f:	8d b3 00 01 00 00    	lea    0x100(%ebx),%esi
  101ba5:	8d 76 00             	lea    0x0(%esi),%esi
  101ba8:	83 ec 0c             	sub    $0xc,%esp
  101bab:	89 d8                	mov    %ebx,%eax
  101bad:	25 ff 07 00 00       	and    $0x7ff,%eax
  101bb2:	0f b6 80 c0 1d 2b 00 	movzbl 0x2b1dc0(%eax),%eax
  101bb9:	50                   	push   %eax
  101bba:	e8 6d f1 ff ff       	call   100d2c <ppu_sprram_write>
  101bbf:	43                   	inc    %ebx
  101bc0:	83 c4 10             	add    $0x10,%esp
  101bc3:	66 39 de             	cmp    %bx,%si
  101bc6:	75 e0                	jne    101ba8 <cpu_op_ins+0x64>
  101bc8:	8d 65 f8             	lea    -0x8(%ebp),%esp
  101bcb:	5b                   	pop    %ebx
  101bcc:	5e                   	pop    %esi
  101bcd:	5d                   	pop    %ebp
  101bce:	e9 cd f5 ff ff       	jmp    1011a0 <cpu_op_sbc>
  101bd3:	83 ec 08             	sub    $0x8,%esp
  101bd6:	52                   	push   %edx
  101bd7:	56                   	push   %esi
  101bd8:	e8 93 4c 00 00       	call   106870 <mmc_write>
  101bdd:	83 c4 10             	add    $0x10,%esp
  101be0:	8d 65 f8             	lea    -0x8(%ebp),%esp
  101be3:	5b                   	pop    %ebx
  101be4:	5e                   	pop    %esi
  101be5:	5d                   	pop    %ebp
  101be6:	e9 b5 f5 ff ff       	jmp    1011a0 <cpu_op_sbc>
  101beb:	83 ec 08             	sub    $0x8,%esp
  101bee:	52                   	push   %edx
  101bef:	56                   	push   %esi
  101bf0:	e8 23 4d 00 00       	call   106918 <psg_io_write>
  101bf5:	83 c4 10             	add    $0x10,%esp
  101bf8:	8d 65 f8             	lea    -0x8(%ebp),%esp
  101bfb:	5b                   	pop    %ebx
  101bfc:	5e                   	pop    %esi
  101bfd:	5d                   	pop    %ebp
  101bfe:	e9 9d f5 ff ff       	jmp    1011a0 <cpu_op_sbc>
  101c03:	83 ec 08             	sub    $0x8,%esp
  101c06:	52                   	push   %edx
  101c07:	56                   	push   %esi
  101c08:	e8 13 ee ff ff       	call   100a20 <ppu_io_write>
  101c0d:	83 c4 10             	add    $0x10,%esp
  101c10:	8d 65 f8             	lea    -0x8(%ebp),%esp
  101c13:	5b                   	pop    %ebx
  101c14:	5e                   	pop    %esi
  101c15:	5d                   	pop    %ebp
  101c16:	e9 85 f5 ff ff       	jmp    1011a0 <cpu_op_sbc>
  101c1b:	90                   	nop

00101c1c <cpu_op_dec>:
  101c1c:	55                   	push   %ebp
  101c1d:	89 e5                	mov    %esp,%ebp
  101c1f:	57                   	push   %edi
  101c20:	56                   	push   %esi
  101c21:	53                   	push   %ebx
  101c22:	83 ec 0c             	sub    $0xc,%esp
  101c25:	a0 60 11 2b 00       	mov    0x2b1160,%al
  101c2a:	8d 58 ff             	lea    -0x1(%eax),%ebx
  101c2d:	0f b6 f3             	movzbl %bl,%esi
  101c30:	a1 64 11 2b 00       	mov    0x2b1164,%eax
  101c35:	66 3d 14 40          	cmp    $0x4014,%ax
  101c39:	74 49                	je     101c84 <cpu_op_dec+0x68>
  101c3b:	0f b7 c8             	movzwl %ax,%ecx
  101c3e:	89 c2                	mov    %eax,%edx
  101c40:	66 c1 ea 0d          	shr    $0xd,%dx
  101c44:	66 83 fa 01          	cmp    $0x1,%dx
  101c48:	0f 84 82 00 00 00    	je     101cd0 <cpu_op_dec+0xb4>
  101c4e:	72 0c                	jb     101c5c <cpu_op_dec+0x40>
  101c50:	66 83 fa 02          	cmp    $0x2,%dx
  101c54:	74 6b                	je     101cc1 <cpu_op_dec+0xa5>
  101c56:	66 83 fa 03          	cmp    $0x3,%dx
  101c5a:	75 56                	jne    101cb2 <cpu_op_dec+0x96>
  101c5c:	25 ff 07 00 00       	and    $0x7ff,%eax
  101c61:	88 98 c0 1d 2b 00    	mov    %bl,0x2b1dc0(%eax)
  101c67:	a0 86 19 2b 00       	mov    0x2b1986,%al
  101c6c:	83 e0 7d             	and    $0x7d,%eax
  101c6f:	0a 86 80 76 10 00    	or     0x107680(%esi),%al
  101c75:	a2 86 19 2b 00       	mov    %al,0x2b1986
  101c7a:	8d 65 f4             	lea    -0xc(%ebp),%esp
  101c7d:	5b                   	pop    %ebx
  101c7e:	5e                   	pop    %esi
  101c7f:	5f                   	pop    %edi
  101c80:	5d                   	pop    %ebp
  101c81:	c3                   	ret    
  101c82:	66 90                	xchg   %ax,%ax
  101c84:	c1 e3 08             	shl    $0x8,%ebx
  101c87:	8d bb 00 01 00 00    	lea    0x100(%ebx),%edi
  101c8d:	8d 76 00             	lea    0x0(%esi),%esi
  101c90:	83 ec 0c             	sub    $0xc,%esp
  101c93:	89 d8                	mov    %ebx,%eax
  101c95:	25 ff 07 00 00       	and    $0x7ff,%eax
  101c9a:	0f b6 80 c0 1d 2b 00 	movzbl 0x2b1dc0(%eax),%eax
  101ca1:	50                   	push   %eax
  101ca2:	e8 85 f0 ff ff       	call   100d2c <ppu_sprram_write>
  101ca7:	43                   	inc    %ebx
  101ca8:	83 c4 10             	add    $0x10,%esp
  101cab:	66 39 df             	cmp    %bx,%di
  101cae:	75 e0                	jne    101c90 <cpu_op_dec+0x74>
  101cb0:	eb b5                	jmp    101c67 <cpu_op_dec+0x4b>
  101cb2:	83 ec 08             	sub    $0x8,%esp
  101cb5:	56                   	push   %esi
  101cb6:	51                   	push   %ecx
  101cb7:	e8 b4 4b 00 00       	call   106870 <mmc_write>
  101cbc:	83 c4 10             	add    $0x10,%esp
  101cbf:	eb a6                	jmp    101c67 <cpu_op_dec+0x4b>
  101cc1:	83 ec 08             	sub    $0x8,%esp
  101cc4:	56                   	push   %esi
  101cc5:	51                   	push   %ecx
  101cc6:	e8 4d 4c 00 00       	call   106918 <psg_io_write>
  101ccb:	83 c4 10             	add    $0x10,%esp
  101cce:	eb 97                	jmp    101c67 <cpu_op_dec+0x4b>
  101cd0:	83 ec 08             	sub    $0x8,%esp
  101cd3:	56                   	push   %esi
  101cd4:	51                   	push   %ecx
  101cd5:	e8 46 ed ff ff       	call   100a20 <ppu_io_write>
  101cda:	83 c4 10             	add    $0x10,%esp
  101cdd:	eb 88                	jmp    101c67 <cpu_op_dec+0x4b>
  101cdf:	90                   	nop

00101ce0 <cpu_op_inc>:
  101ce0:	55                   	push   %ebp
  101ce1:	89 e5                	mov    %esp,%ebp
  101ce3:	57                   	push   %edi
  101ce4:	56                   	push   %esi
  101ce5:	53                   	push   %ebx
  101ce6:	83 ec 0c             	sub    $0xc,%esp
  101ce9:	a0 60 11 2b 00       	mov    0x2b1160,%al
  101cee:	8d 58 01             	lea    0x1(%eax),%ebx
  101cf1:	0f b6 f3             	movzbl %bl,%esi
  101cf4:	a1 64 11 2b 00       	mov    0x2b1164,%eax
  101cf9:	66 3d 14 40          	cmp    $0x4014,%ax
  101cfd:	74 49                	je     101d48 <cpu_op_inc+0x68>
  101cff:	0f b7 c8             	movzwl %ax,%ecx
  101d02:	89 c2                	mov    %eax,%edx
  101d04:	66 c1 ea 0d          	shr    $0xd,%dx
  101d08:	66 83 fa 01          	cmp    $0x1,%dx
  101d0c:	0f 84 82 00 00 00    	je     101d94 <cpu_op_inc+0xb4>
  101d12:	72 0c                	jb     101d20 <cpu_op_inc+0x40>
  101d14:	66 83 fa 02          	cmp    $0x2,%dx
  101d18:	74 6b                	je     101d85 <cpu_op_inc+0xa5>
  101d1a:	66 83 fa 03          	cmp    $0x3,%dx
  101d1e:	75 56                	jne    101d76 <cpu_op_inc+0x96>
  101d20:	25 ff 07 00 00       	and    $0x7ff,%eax
  101d25:	88 98 c0 1d 2b 00    	mov    %bl,0x2b1dc0(%eax)
  101d2b:	a0 86 19 2b 00       	mov    0x2b1986,%al
  101d30:	83 e0 7d             	and    $0x7d,%eax
  101d33:	0a 86 80 76 10 00    	or     0x107680(%esi),%al
  101d39:	a2 86 19 2b 00       	mov    %al,0x2b1986
  101d3e:	8d 65 f4             	lea    -0xc(%ebp),%esp
  101d41:	5b                   	pop    %ebx
  101d42:	5e                   	pop    %esi
  101d43:	5f                   	pop    %edi
  101d44:	5d                   	pop    %ebp
  101d45:	c3                   	ret    
  101d46:	66 90                	xchg   %ax,%ax
  101d48:	c1 e3 08             	shl    $0x8,%ebx
  101d4b:	8d bb 00 01 00 00    	lea    0x100(%ebx),%edi
  101d51:	8d 76 00             	lea    0x0(%esi),%esi
  101d54:	83 ec 0c             	sub    $0xc,%esp
  101d57:	89 d8                	mov    %ebx,%eax
  101d59:	25 ff 07 00 00       	and    $0x7ff,%eax
  101d5e:	0f b6 80 c0 1d 2b 00 	movzbl 0x2b1dc0(%eax),%eax
  101d65:	50                   	push   %eax
  101d66:	e8 c1 ef ff ff       	call   100d2c <ppu_sprram_write>
  101d6b:	43                   	inc    %ebx
  101d6c:	83 c4 10             	add    $0x10,%esp
  101d6f:	66 39 df             	cmp    %bx,%di
  101d72:	75 e0                	jne    101d54 <cpu_op_inc+0x74>
  101d74:	eb b5                	jmp    101d2b <cpu_op_inc+0x4b>
  101d76:	83 ec 08             	sub    $0x8,%esp
  101d79:	56                   	push   %esi
  101d7a:	51                   	push   %ecx
  101d7b:	e8 f0 4a 00 00       	call   106870 <mmc_write>
  101d80:	83 c4 10             	add    $0x10,%esp
  101d83:	eb a6                	jmp    101d2b <cpu_op_inc+0x4b>
  101d85:	83 ec 08             	sub    $0x8,%esp
  101d88:	56                   	push   %esi
  101d89:	51                   	push   %ecx
  101d8a:	e8 89 4b 00 00       	call   106918 <psg_io_write>
  101d8f:	83 c4 10             	add    $0x10,%esp
  101d92:	eb 97                	jmp    101d2b <cpu_op_inc+0x4b>
  101d94:	83 ec 08             	sub    $0x8,%esp
  101d97:	56                   	push   %esi
  101d98:	51                   	push   %ecx
  101d99:	e8 82 ec ff ff       	call   100a20 <ppu_io_write>
  101d9e:	83 c4 10             	add    $0x10,%esp
  101da1:	eb 88                	jmp    101d2b <cpu_op_inc+0x4b>
  101da3:	90                   	nop

00101da4 <cpu_op_jsr>:
  101da4:	55                   	push   %ebp
  101da5:	89 e5                	mov    %esp,%ebp
  101da7:	66 a1 80 19 2b 00    	mov    0x2b1980,%ax
  101dad:	8d 50 ff             	lea    -0x1(%eax),%edx
  101db0:	0f b6 05 82 19 2b 00 	movzbl 0x2b1982,%eax
  101db7:	8d 88 ff 00 00 00    	lea    0xff(%eax),%ecx
  101dbd:	0f b7 c9             	movzwl %cx,%ecx
  101dc0:	88 91 c0 1d 2b 00    	mov    %dl,0x2b1dc0(%ecx)
  101dc6:	05 00 01 00 00       	add    $0x100,%eax
  101dcb:	0f b7 c0             	movzwl %ax,%eax
  101dce:	66 c1 ea 08          	shr    $0x8,%dx
  101dd2:	88 90 c0 1d 2b 00    	mov    %dl,0x2b1dc0(%eax)
  101dd8:	a0 82 19 2b 00       	mov    0x2b1982,%al
  101ddd:	83 e8 02             	sub    $0x2,%eax
  101de0:	a2 82 19 2b 00       	mov    %al,0x2b1982
  101de5:	a1 64 11 2b 00       	mov    0x2b1164,%eax
  101dea:	66 a3 80 19 2b 00    	mov    %ax,0x2b1980
  101df0:	5d                   	pop    %ebp
  101df1:	c3                   	ret    
  101df2:	66 90                	xchg   %ax,%ax

00101df4 <cpu_op_asl>:
  101df4:	55                   	push   %ebp
  101df5:	89 e5                	mov    %esp,%ebp
  101df7:	56                   	push   %esi
  101df8:	53                   	push   %ebx
  101df9:	50                   	push   %eax
  101dfa:	a1 60 11 2b 00       	mov    0x2b1160,%eax
  101dff:	25 80 00 00 00       	and    $0x80,%eax
  101e04:	50                   	push   %eax
  101e05:	6a 00                	push   $0x0
  101e07:	68 86 19 2b 00       	push   $0x2b1986
  101e0c:	e8 a7 35 00 00       	call   1053b8 <common_modify_bitb>
  101e11:	8b 1d 60 11 2b 00    	mov    0x2b1160,%ebx
  101e17:	01 db                	add    %ebx,%ebx
  101e19:	0f b6 d3             	movzbl %bl,%edx
  101e1c:	89 15 60 11 2b 00    	mov    %edx,0x2b1160
  101e22:	a0 86 19 2b 00       	mov    0x2b1986,%al
  101e27:	83 e0 7d             	and    $0x7d,%eax
  101e2a:	0a 82 80 76 10 00    	or     0x107680(%edx),%al
  101e30:	a2 86 19 2b 00       	mov    %al,0x2b1986
  101e35:	a1 64 11 2b 00       	mov    0x2b1164,%eax
  101e3a:	83 c4 10             	add    $0x10,%esp
  101e3d:	66 3d 14 40          	cmp    $0x4014,%ax
  101e41:	74 31                	je     101e74 <cpu_op_asl+0x80>
  101e43:	0f b7 f0             	movzwl %ax,%esi
  101e46:	89 c1                	mov    %eax,%ecx
  101e48:	66 c1 e9 0d          	shr    $0xd,%cx
  101e4c:	66 83 f9 01          	cmp    $0x1,%cx
  101e50:	74 7d                	je     101ecf <cpu_op_asl+0xdb>
  101e52:	72 0c                	jb     101e60 <cpu_op_asl+0x6c>
  101e54:	66 83 f9 02          	cmp    $0x2,%cx
  101e58:	74 61                	je     101ebb <cpu_op_asl+0xc7>
  101e5a:	66 83 f9 03          	cmp    $0x3,%cx
  101e5e:	75 47                	jne    101ea7 <cpu_op_asl+0xb3>
  101e60:	25 ff 07 00 00       	and    $0x7ff,%eax
  101e65:	88 98 c0 1d 2b 00    	mov    %bl,0x2b1dc0(%eax)
  101e6b:	8d 65 f8             	lea    -0x8(%ebp),%esp
  101e6e:	5b                   	pop    %ebx
  101e6f:	5e                   	pop    %esi
  101e70:	5d                   	pop    %ebp
  101e71:	c3                   	ret    
  101e72:	66 90                	xchg   %ax,%ax
  101e74:	c1 e3 08             	shl    $0x8,%ebx
  101e77:	8d b3 00 01 00 00    	lea    0x100(%ebx),%esi
  101e7d:	8d 76 00             	lea    0x0(%esi),%esi
  101e80:	83 ec 0c             	sub    $0xc,%esp
  101e83:	89 d8                	mov    %ebx,%eax
  101e85:	25 ff 07 00 00       	and    $0x7ff,%eax
  101e8a:	0f b6 80 c0 1d 2b 00 	movzbl 0x2b1dc0(%eax),%eax
  101e91:	50                   	push   %eax
  101e92:	e8 95 ee ff ff       	call   100d2c <ppu_sprram_write>
  101e97:	43                   	inc    %ebx
  101e98:	83 c4 10             	add    $0x10,%esp
  101e9b:	66 39 de             	cmp    %bx,%si
  101e9e:	75 e0                	jne    101e80 <cpu_op_asl+0x8c>
  101ea0:	8d 65 f8             	lea    -0x8(%ebp),%esp
  101ea3:	5b                   	pop    %ebx
  101ea4:	5e                   	pop    %esi
  101ea5:	5d                   	pop    %ebp
  101ea6:	c3                   	ret    
  101ea7:	83 ec 08             	sub    $0x8,%esp
  101eaa:	52                   	push   %edx
  101eab:	56                   	push   %esi
  101eac:	e8 bf 49 00 00       	call   106870 <mmc_write>
  101eb1:	83 c4 10             	add    $0x10,%esp
  101eb4:	8d 65 f8             	lea    -0x8(%ebp),%esp
  101eb7:	5b                   	pop    %ebx
  101eb8:	5e                   	pop    %esi
  101eb9:	5d                   	pop    %ebp
  101eba:	c3                   	ret    
  101ebb:	83 ec 08             	sub    $0x8,%esp
  101ebe:	52                   	push   %edx
  101ebf:	56                   	push   %esi
  101ec0:	e8 53 4a 00 00       	call   106918 <psg_io_write>
  101ec5:	83 c4 10             	add    $0x10,%esp
  101ec8:	8d 65 f8             	lea    -0x8(%ebp),%esp
  101ecb:	5b                   	pop    %ebx
  101ecc:	5e                   	pop    %esi
  101ecd:	5d                   	pop    %ebp
  101ece:	c3                   	ret    
  101ecf:	83 ec 08             	sub    $0x8,%esp
  101ed2:	52                   	push   %edx
  101ed3:	56                   	push   %esi
  101ed4:	e8 47 eb ff ff       	call   100a20 <ppu_io_write>
  101ed9:	83 c4 10             	add    $0x10,%esp
  101edc:	8d 65 f8             	lea    -0x8(%ebp),%esp
  101edf:	5b                   	pop    %ebx
  101ee0:	5e                   	pop    %esi
  101ee1:	5d                   	pop    %ebp
  101ee2:	c3                   	ret    
  101ee3:	90                   	nop

00101ee4 <cpu_op_aso>:
  101ee4:	55                   	push   %ebp
  101ee5:	89 e5                	mov    %esp,%ebp
  101ee7:	83 ec 08             	sub    $0x8,%esp
  101eea:	e8 05 ff ff ff       	call   101df4 <cpu_op_asl>
  101eef:	8a 15 86 19 2b 00    	mov    0x2b1986,%dl
  101ef5:	83 e2 7d             	and    $0x7d,%edx
  101ef8:	a1 60 11 2b 00       	mov    0x2b1160,%eax
  101efd:	0a 05 83 19 2b 00    	or     0x2b1983,%al
  101f03:	a2 83 19 2b 00       	mov    %al,0x2b1983
  101f08:	0f b6 c0             	movzbl %al,%eax
  101f0b:	0a 90 80 76 10 00    	or     0x107680(%eax),%dl
  101f11:	88 15 86 19 2b 00    	mov    %dl,0x2b1986
  101f17:	c9                   	leave  
  101f18:	c3                   	ret    
  101f19:	8d 76 00             	lea    0x0(%esi),%esi

00101f1c <cpu_op_lsr>:
  101f1c:	55                   	push   %ebp
  101f1d:	89 e5                	mov    %esp,%ebp
  101f1f:	56                   	push   %esi
  101f20:	53                   	push   %ebx
  101f21:	50                   	push   %eax
  101f22:	a1 60 11 2b 00       	mov    0x2b1160,%eax
  101f27:	83 e0 01             	and    $0x1,%eax
  101f2a:	50                   	push   %eax
  101f2b:	6a 00                	push   $0x0
  101f2d:	68 86 19 2b 00       	push   $0x2b1986
  101f32:	e8 81 34 00 00       	call   1053b8 <common_modify_bitb>
  101f37:	8b 1d 60 11 2b 00    	mov    0x2b1160,%ebx
  101f3d:	d1 fb                	sar    %ebx
  101f3f:	0f b6 d3             	movzbl %bl,%edx
  101f42:	89 15 60 11 2b 00    	mov    %edx,0x2b1160
  101f48:	a1 64 11 2b 00       	mov    0x2b1164,%eax
  101f4d:	83 c4 10             	add    $0x10,%esp
  101f50:	66 3d 14 40          	cmp    $0x4014,%ax
  101f54:	74 46                	je     101f9c <cpu_op_lsr+0x80>
  101f56:	0f b7 f0             	movzwl %ax,%esi
  101f59:	89 c1                	mov    %eax,%ecx
  101f5b:	66 c1 e9 0d          	shr    $0xd,%cx
  101f5f:	66 83 f9 01          	cmp    $0x1,%cx
  101f63:	0f 84 91 00 00 00    	je     101ffa <cpu_op_lsr+0xde>
  101f69:	72 0c                	jb     101f77 <cpu_op_lsr+0x5b>
  101f6b:	66 83 f9 02          	cmp    $0x2,%cx
  101f6f:	74 74                	je     101fe5 <cpu_op_lsr+0xc9>
  101f71:	66 83 f9 03          	cmp    $0x3,%cx
  101f75:	75 59                	jne    101fd0 <cpu_op_lsr+0xb4>
  101f77:	25 ff 07 00 00       	and    $0x7ff,%eax
  101f7c:	88 98 c0 1d 2b 00    	mov    %bl,0x2b1dc0(%eax)
  101f82:	a0 86 19 2b 00       	mov    0x2b1986,%al
  101f87:	83 e0 7d             	and    $0x7d,%eax
  101f8a:	0a 82 80 76 10 00    	or     0x107680(%edx),%al
  101f90:	a2 86 19 2b 00       	mov    %al,0x2b1986
  101f95:	8d 65 f8             	lea    -0x8(%ebp),%esp
  101f98:	5b                   	pop    %ebx
  101f99:	5e                   	pop    %esi
  101f9a:	5d                   	pop    %ebp
  101f9b:	c3                   	ret    
  101f9c:	c1 e3 08             	shl    $0x8,%ebx
  101f9f:	8d b3 00 01 00 00    	lea    0x100(%ebx),%esi
  101fa5:	8d 76 00             	lea    0x0(%esi),%esi
  101fa8:	83 ec 0c             	sub    $0xc,%esp
  101fab:	89 d8                	mov    %ebx,%eax
  101fad:	25 ff 07 00 00       	and    $0x7ff,%eax
  101fb2:	0f b6 80 c0 1d 2b 00 	movzbl 0x2b1dc0(%eax),%eax
  101fb9:	50                   	push   %eax
  101fba:	e8 6d ed ff ff       	call   100d2c <ppu_sprram_write>
  101fbf:	43                   	inc    %ebx
  101fc0:	83 c4 10             	add    $0x10,%esp
  101fc3:	66 39 de             	cmp    %bx,%si
  101fc6:	75 e0                	jne    101fa8 <cpu_op_lsr+0x8c>
  101fc8:	8b 15 60 11 2b 00    	mov    0x2b1160,%edx
  101fce:	eb b2                	jmp    101f82 <cpu_op_lsr+0x66>
  101fd0:	83 ec 08             	sub    $0x8,%esp
  101fd3:	52                   	push   %edx
  101fd4:	56                   	push   %esi
  101fd5:	e8 96 48 00 00       	call   106870 <mmc_write>
  101fda:	8b 15 60 11 2b 00    	mov    0x2b1160,%edx
  101fe0:	83 c4 10             	add    $0x10,%esp
  101fe3:	eb 9d                	jmp    101f82 <cpu_op_lsr+0x66>
  101fe5:	83 ec 08             	sub    $0x8,%esp
  101fe8:	52                   	push   %edx
  101fe9:	56                   	push   %esi
  101fea:	e8 29 49 00 00       	call   106918 <psg_io_write>
  101fef:	8b 15 60 11 2b 00    	mov    0x2b1160,%edx
  101ff5:	83 c4 10             	add    $0x10,%esp
  101ff8:	eb 88                	jmp    101f82 <cpu_op_lsr+0x66>
  101ffa:	83 ec 08             	sub    $0x8,%esp
  101ffd:	52                   	push   %edx
  101ffe:	56                   	push   %esi
  101fff:	e8 1c ea ff ff       	call   100a20 <ppu_io_write>
  102004:	8b 15 60 11 2b 00    	mov    0x2b1160,%edx
  10200a:	83 c4 10             	add    $0x10,%esp
  10200d:	e9 70 ff ff ff       	jmp    101f82 <cpu_op_lsr+0x66>
  102012:	66 90                	xchg   %ax,%ax

00102014 <cpu_op_lse>:
  102014:	55                   	push   %ebp
  102015:	89 e5                	mov    %esp,%ebp
  102017:	83 ec 08             	sub    $0x8,%esp
  10201a:	e8 fd fe ff ff       	call   101f1c <cpu_op_lsr>
  10201f:	8a 15 86 19 2b 00    	mov    0x2b1986,%dl
  102025:	83 e2 7d             	and    $0x7d,%edx
  102028:	a1 60 11 2b 00       	mov    0x2b1160,%eax
  10202d:	32 05 83 19 2b 00    	xor    0x2b1983,%al
  102033:	a2 83 19 2b 00       	mov    %al,0x2b1983
  102038:	0f b6 c0             	movzbl %al,%eax
  10203b:	0a 90 80 76 10 00    	or     0x107680(%eax),%dl
  102041:	88 15 86 19 2b 00    	mov    %dl,0x2b1986
  102047:	c9                   	leave  
  102048:	c3                   	ret    
  102049:	8d 76 00             	lea    0x0(%esi),%esi

0010204c <cpu_op_brk>:
  10204c:	55                   	push   %ebp
  10204d:	89 e5                	mov    %esp,%ebp
  10204f:	53                   	push   %ebx
  102050:	83 ec 10             	sub    $0x10,%esp
  102053:	66 a1 80 19 2b 00    	mov    0x2b1980,%ax
  102059:	8d 48 ff             	lea    -0x1(%eax),%ecx
  10205c:	0f b6 15 82 19 2b 00 	movzbl 0x2b1982,%edx
  102063:	89 d0                	mov    %edx,%eax
  102065:	8d 9a ff 00 00 00    	lea    0xff(%edx),%ebx
  10206b:	0f b7 db             	movzwl %bx,%ebx
  10206e:	88 8b c0 1d 2b 00    	mov    %cl,0x2b1dc0(%ebx)
  102074:	81 c2 00 01 00 00    	add    $0x100,%edx
  10207a:	0f b7 d2             	movzwl %dx,%edx
  10207d:	66 c1 e9 08          	shr    $0x8,%cx
  102081:	88 8a c0 1d 2b 00    	mov    %cl,0x2b1dc0(%edx)
  102087:	8d 50 fd             	lea    -0x3(%eax),%edx
  10208a:	88 15 82 19 2b 00    	mov    %dl,0x2b1982
  102090:	83 e8 02             	sub    $0x2,%eax
  102093:	0f b6 c0             	movzbl %al,%eax
  102096:	8a 0d 86 19 2b 00    	mov    0x2b1986,%cl
  10209c:	88 88 c0 1e 2b 00    	mov    %cl,0x2b1ec0(%eax)
  1020a2:	88 c8                	mov    %cl,%al
  1020a4:	83 c8 30             	or     $0x30,%eax
  1020a7:	a2 86 19 2b 00       	mov    %al,0x2b1986
  1020ac:	68 fa ff 00 00       	push   $0xfffa
  1020b1:	e8 aa 47 00 00       	call   106860 <mmc_read>
  1020b6:	0f b6 d8             	movzbl %al,%ebx
  1020b9:	c7 04 24 fb ff 00 00 	movl   $0xfffb,(%esp)
  1020c0:	e8 9b 47 00 00       	call   106860 <mmc_read>
  1020c5:	c1 e0 08             	shl    $0x8,%eax
  1020c8:	01 d8                	add    %ebx,%eax
  1020ca:	66 a3 80 19 2b 00    	mov    %ax,0x2b1980
  1020d0:	83 c4 10             	add    $0x10,%esp
  1020d3:	8b 5d fc             	mov    -0x4(%ebp),%ebx
  1020d6:	c9                   	leave  
  1020d7:	c3                   	ret    

001020d8 <cpu_op_rol>:
  1020d8:	55                   	push   %ebp
  1020d9:	89 e5                	mov    %esp,%ebp
  1020db:	56                   	push   %esi
  1020dc:	53                   	push   %ebx
  1020dd:	a1 60 11 2b 00       	mov    0x2b1160,%eax
  1020e2:	01 c0                	add    %eax,%eax
  1020e4:	8a 15 86 19 2b 00    	mov    0x2b1986,%dl
  1020ea:	83 e2 01             	and    $0x1,%edx
  1020ed:	09 d0                	or     %edx,%eax
  1020ef:	a3 60 11 2b 00       	mov    %eax,0x2b1160
  1020f4:	52                   	push   %edx
  1020f5:	3d ff 00 00 00       	cmp    $0xff,%eax
  1020fa:	0f 9f c0             	setg   %al
  1020fd:	0f b6 c0             	movzbl %al,%eax
  102100:	50                   	push   %eax
  102101:	6a 00                	push   $0x0
  102103:	68 86 19 2b 00       	push   $0x2b1986
  102108:	e8 ab 32 00 00       	call   1053b8 <common_modify_bitb>
  10210d:	8b 1d 60 11 2b 00    	mov    0x2b1160,%ebx
  102113:	0f b6 d3             	movzbl %bl,%edx
  102116:	89 15 60 11 2b 00    	mov    %edx,0x2b1160
  10211c:	a1 64 11 2b 00       	mov    0x2b1164,%eax
  102121:	83 c4 10             	add    $0x10,%esp
  102124:	66 3d 14 40          	cmp    $0x4014,%ax
  102128:	74 46                	je     102170 <cpu_op_rol+0x98>
  10212a:	0f b7 f0             	movzwl %ax,%esi
  10212d:	89 c1                	mov    %eax,%ecx
  10212f:	66 c1 e9 0d          	shr    $0xd,%cx
  102133:	66 83 f9 01          	cmp    $0x1,%cx
  102137:	0f 84 91 00 00 00    	je     1021ce <cpu_op_rol+0xf6>
  10213d:	72 0c                	jb     10214b <cpu_op_rol+0x73>
  10213f:	66 83 f9 02          	cmp    $0x2,%cx
  102143:	74 74                	je     1021b9 <cpu_op_rol+0xe1>
  102145:	66 83 f9 03          	cmp    $0x3,%cx
  102149:	75 59                	jne    1021a4 <cpu_op_rol+0xcc>
  10214b:	25 ff 07 00 00       	and    $0x7ff,%eax
  102150:	88 98 c0 1d 2b 00    	mov    %bl,0x2b1dc0(%eax)
  102156:	a0 86 19 2b 00       	mov    0x2b1986,%al
  10215b:	83 e0 7d             	and    $0x7d,%eax
  10215e:	0a 82 80 76 10 00    	or     0x107680(%edx),%al
  102164:	a2 86 19 2b 00       	mov    %al,0x2b1986
  102169:	8d 65 f8             	lea    -0x8(%ebp),%esp
  10216c:	5b                   	pop    %ebx
  10216d:	5e                   	pop    %esi
  10216e:	5d                   	pop    %ebp
  10216f:	c3                   	ret    
  102170:	c1 e3 08             	shl    $0x8,%ebx
  102173:	8d b3 00 01 00 00    	lea    0x100(%ebx),%esi
  102179:	8d 76 00             	lea    0x0(%esi),%esi
  10217c:	83 ec 0c             	sub    $0xc,%esp
  10217f:	89 d8                	mov    %ebx,%eax
  102181:	25 ff 07 00 00       	and    $0x7ff,%eax
  102186:	0f b6 80 c0 1d 2b 00 	movzbl 0x2b1dc0(%eax),%eax
  10218d:	50                   	push   %eax
  10218e:	e8 99 eb ff ff       	call   100d2c <ppu_sprram_write>
  102193:	43                   	inc    %ebx
  102194:	83 c4 10             	add    $0x10,%esp
  102197:	66 39 de             	cmp    %bx,%si
  10219a:	75 e0                	jne    10217c <cpu_op_rol+0xa4>
  10219c:	8b 15 60 11 2b 00    	mov    0x2b1160,%edx
  1021a2:	eb b2                	jmp    102156 <cpu_op_rol+0x7e>
  1021a4:	83 ec 08             	sub    $0x8,%esp
  1021a7:	52                   	push   %edx
  1021a8:	56                   	push   %esi
  1021a9:	e8 c2 46 00 00       	call   106870 <mmc_write>
  1021ae:	8b 15 60 11 2b 00    	mov    0x2b1160,%edx
  1021b4:	83 c4 10             	add    $0x10,%esp
  1021b7:	eb 9d                	jmp    102156 <cpu_op_rol+0x7e>
  1021b9:	83 ec 08             	sub    $0x8,%esp
  1021bc:	52                   	push   %edx
  1021bd:	56                   	push   %esi
  1021be:	e8 55 47 00 00       	call   106918 <psg_io_write>
  1021c3:	8b 15 60 11 2b 00    	mov    0x2b1160,%edx
  1021c9:	83 c4 10             	add    $0x10,%esp
  1021cc:	eb 88                	jmp    102156 <cpu_op_rol+0x7e>
  1021ce:	83 ec 08             	sub    $0x8,%esp
  1021d1:	52                   	push   %edx
  1021d2:	56                   	push   %esi
  1021d3:	e8 48 e8 ff ff       	call   100a20 <ppu_io_write>
  1021d8:	8b 15 60 11 2b 00    	mov    0x2b1160,%edx
  1021de:	83 c4 10             	add    $0x10,%esp
  1021e1:	e9 70 ff ff ff       	jmp    102156 <cpu_op_rol+0x7e>
  1021e6:	66 90                	xchg   %ax,%ax

001021e8 <cpu_op_rla>:
  1021e8:	55                   	push   %ebp
  1021e9:	89 e5                	mov    %esp,%ebp
  1021eb:	83 ec 08             	sub    $0x8,%esp
  1021ee:	e8 e5 fe ff ff       	call   1020d8 <cpu_op_rol>
  1021f3:	8a 15 86 19 2b 00    	mov    0x2b1986,%dl
  1021f9:	83 e2 7d             	and    $0x7d,%edx
  1021fc:	a1 60 11 2b 00       	mov    0x2b1160,%eax
  102201:	22 05 83 19 2b 00    	and    0x2b1983,%al
  102207:	a2 83 19 2b 00       	mov    %al,0x2b1983
  10220c:	0f b6 c0             	movzbl %al,%eax
  10220f:	0a 90 80 76 10 00    	or     0x107680(%eax),%dl
  102215:	88 15 86 19 2b 00    	mov    %dl,0x2b1986
  10221b:	c9                   	leave  
  10221c:	c3                   	ret    
  10221d:	8d 76 00             	lea    0x0(%esi),%esi

00102220 <cpu_op_ror>:
  102220:	55                   	push   %ebp
  102221:	89 e5                	mov    %esp,%ebp
  102223:	56                   	push   %esi
  102224:	53                   	push   %ebx
  102225:	8a 1d 86 19 2b 00    	mov    0x2b1986,%bl
  10222b:	83 e3 01             	and    $0x1,%ebx
  10222e:	50                   	push   %eax
  10222f:	a1 60 11 2b 00       	mov    0x2b1160,%eax
  102234:	83 e0 01             	and    $0x1,%eax
  102237:	50                   	push   %eax
  102238:	6a 00                	push   $0x0
  10223a:	68 86 19 2b 00       	push   $0x2b1986
  10223f:	e8 74 31 00 00       	call   1053b8 <common_modify_bitb>
  102244:	a1 60 11 2b 00       	mov    0x2b1160,%eax
  102249:	d1 f8                	sar    %eax
  10224b:	89 da                	mov    %ebx,%edx
  10224d:	c1 e2 07             	shl    $0x7,%edx
  102250:	09 d0                	or     %edx,%eax
  102252:	0f b6 c0             	movzbl %al,%eax
  102255:	a3 60 11 2b 00       	mov    %eax,0x2b1160
  10225a:	83 c4 0c             	add    $0xc,%esp
  10225d:	85 c0                	test   %eax,%eax
  10225f:	0f 94 c0             	sete   %al
  102262:	0f b6 c0             	movzbl %al,%eax
  102265:	50                   	push   %eax
  102266:	6a 01                	push   $0x1
  102268:	68 86 19 2b 00       	push   $0x2b1986
  10226d:	e8 46 31 00 00       	call   1053b8 <common_modify_bitb>
  102272:	83 c4 0c             	add    $0xc,%esp
  102275:	53                   	push   %ebx
  102276:	6a 07                	push   $0x7
  102278:	68 86 19 2b 00       	push   $0x2b1986
  10227d:	e8 36 31 00 00       	call   1053b8 <common_modify_bitb>
  102282:	8b 1d 60 11 2b 00    	mov    0x2b1160,%ebx
  102288:	a1 64 11 2b 00       	mov    0x2b1164,%eax
  10228d:	83 c4 10             	add    $0x10,%esp
  102290:	66 3d 14 40          	cmp    $0x4014,%ax
  102294:	74 32                	je     1022c8 <cpu_op_ror+0xa8>
  102296:	0f b6 f3             	movzbl %bl,%esi
  102299:	0f b7 c8             	movzwl %ax,%ecx
  10229c:	89 c2                	mov    %eax,%edx
  10229e:	66 c1 ea 0d          	shr    $0xd,%dx
  1022a2:	66 83 fa 01          	cmp    $0x1,%dx
  1022a6:	74 7b                	je     102323 <cpu_op_ror+0x103>
  1022a8:	72 0c                	jb     1022b6 <cpu_op_ror+0x96>
  1022aa:	66 83 fa 02          	cmp    $0x2,%dx
  1022ae:	74 5f                	je     10230f <cpu_op_ror+0xef>
  1022b0:	66 83 fa 03          	cmp    $0x3,%dx
  1022b4:	75 45                	jne    1022fb <cpu_op_ror+0xdb>
  1022b6:	25 ff 07 00 00       	and    $0x7ff,%eax
  1022bb:	88 98 c0 1d 2b 00    	mov    %bl,0x2b1dc0(%eax)
  1022c1:	8d 65 f8             	lea    -0x8(%ebp),%esp
  1022c4:	5b                   	pop    %ebx
  1022c5:	5e                   	pop    %esi
  1022c6:	5d                   	pop    %ebp
  1022c7:	c3                   	ret    
  1022c8:	c1 e3 08             	shl    $0x8,%ebx
  1022cb:	8d b3 00 01 00 00    	lea    0x100(%ebx),%esi
  1022d1:	8d 76 00             	lea    0x0(%esi),%esi
  1022d4:	83 ec 0c             	sub    $0xc,%esp
  1022d7:	89 d8                	mov    %ebx,%eax
  1022d9:	25 ff 07 00 00       	and    $0x7ff,%eax
  1022de:	0f b6 80 c0 1d 2b 00 	movzbl 0x2b1dc0(%eax),%eax
  1022e5:	50                   	push   %eax
  1022e6:	e8 41 ea ff ff       	call   100d2c <ppu_sprram_write>
  1022eb:	43                   	inc    %ebx
  1022ec:	83 c4 10             	add    $0x10,%esp
  1022ef:	66 39 de             	cmp    %bx,%si
  1022f2:	75 e0                	jne    1022d4 <cpu_op_ror+0xb4>
  1022f4:	8d 65 f8             	lea    -0x8(%ebp),%esp
  1022f7:	5b                   	pop    %ebx
  1022f8:	5e                   	pop    %esi
  1022f9:	5d                   	pop    %ebp
  1022fa:	c3                   	ret    
  1022fb:	83 ec 08             	sub    $0x8,%esp
  1022fe:	56                   	push   %esi
  1022ff:	51                   	push   %ecx
  102300:	e8 6b 45 00 00       	call   106870 <mmc_write>
  102305:	83 c4 10             	add    $0x10,%esp
  102308:	8d 65 f8             	lea    -0x8(%ebp),%esp
  10230b:	5b                   	pop    %ebx
  10230c:	5e                   	pop    %esi
  10230d:	5d                   	pop    %ebp
  10230e:	c3                   	ret    
  10230f:	83 ec 08             	sub    $0x8,%esp
  102312:	56                   	push   %esi
  102313:	51                   	push   %ecx
  102314:	e8 ff 45 00 00       	call   106918 <psg_io_write>
  102319:	83 c4 10             	add    $0x10,%esp
  10231c:	8d 65 f8             	lea    -0x8(%ebp),%esp
  10231f:	5b                   	pop    %ebx
  102320:	5e                   	pop    %esi
  102321:	5d                   	pop    %ebp
  102322:	c3                   	ret    
  102323:	83 ec 08             	sub    $0x8,%esp
  102326:	56                   	push   %esi
  102327:	51                   	push   %ecx
  102328:	e8 f3 e6 ff ff       	call   100a20 <ppu_io_write>
  10232d:	83 c4 10             	add    $0x10,%esp
  102330:	8d 65 f8             	lea    -0x8(%ebp),%esp
  102333:	5b                   	pop    %ebx
  102334:	5e                   	pop    %esi
  102335:	5d                   	pop    %ebp
  102336:	c3                   	ret    
  102337:	90                   	nop

00102338 <cpu_op_rra>:
  102338:	55                   	push   %ebp
  102339:	89 e5                	mov    %esp,%ebp
  10233b:	83 ec 08             	sub    $0x8,%esp
  10233e:	e8 dd fe ff ff       	call   102220 <cpu_op_ror>
  102343:	c9                   	leave  
  102344:	e9 cf ed ff ff       	jmp    101118 <cpu_op_adc>
  102349:	8d 76 00             	lea    0x0(%esi),%esi

0010234c <cpu_ram_read>:
  10234c:	55                   	push   %ebp
  10234d:	89 e5                	mov    %esp,%ebp
  10234f:	8b 45 08             	mov    0x8(%ebp),%eax
  102352:	25 ff 07 00 00       	and    $0x7ff,%eax
  102357:	8a 80 c0 1d 2b 00    	mov    0x2b1dc0(%eax),%al
  10235d:	5d                   	pop    %ebp
  10235e:	c3                   	ret    
  10235f:	90                   	nop

00102360 <cpu_ram_write>:
  102360:	55                   	push   %ebp
  102361:	89 e5                	mov    %esp,%ebp
  102363:	8b 45 08             	mov    0x8(%ebp),%eax
  102366:	25 ff 07 00 00       	and    $0x7ff,%eax
  10236b:	8b 55 0c             	mov    0xc(%ebp),%edx
  10236e:	88 90 c0 1d 2b 00    	mov    %dl,0x2b1dc0(%eax)
  102374:	5d                   	pop    %ebp
  102375:	c3                   	ret    
  102376:	66 90                	xchg   %ax,%ax

00102378 <cpu_nmi_interrupt_address>:
  102378:	55                   	push   %ebp
  102379:	89 e5                	mov    %esp,%ebp
  10237b:	53                   	push   %ebx
  10237c:	83 ec 10             	sub    $0x10,%esp
  10237f:	68 fa ff 00 00       	push   $0xfffa
  102384:	e8 d7 44 00 00       	call   106860 <mmc_read>
  102389:	0f b6 d8             	movzbl %al,%ebx
  10238c:	c7 04 24 fb ff 00 00 	movl   $0xfffb,(%esp)
  102393:	e8 c8 44 00 00       	call   106860 <mmc_read>
  102398:	c1 e0 08             	shl    $0x8,%eax
  10239b:	01 d8                	add    %ebx,%eax
  10239d:	8b 5d fc             	mov    -0x4(%ebp),%ebx
  1023a0:	c9                   	leave  
  1023a1:	c3                   	ret    
  1023a2:	66 90                	xchg   %ax,%ax

001023a4 <cpu_reset_interrupt_address>:
  1023a4:	55                   	push   %ebp
  1023a5:	89 e5                	mov    %esp,%ebp
  1023a7:	53                   	push   %ebx
  1023a8:	83 ec 10             	sub    $0x10,%esp
  1023ab:	68 fc ff 00 00       	push   $0xfffc
  1023b0:	e8 ab 44 00 00       	call   106860 <mmc_read>
  1023b5:	0f b6 d8             	movzbl %al,%ebx
  1023b8:	c7 04 24 fd ff 00 00 	movl   $0xfffd,(%esp)
  1023bf:	e8 9c 44 00 00       	call   106860 <mmc_read>
  1023c4:	c1 e0 08             	shl    $0x8,%eax
  1023c7:	01 d8                	add    %ebx,%eax
  1023c9:	8b 5d fc             	mov    -0x4(%ebp),%ebx
  1023cc:	c9                   	leave  
  1023cd:	c3                   	ret    
  1023ce:	66 90                	xchg   %ax,%ax

001023d0 <cpu_irq_interrupt_address>:
  1023d0:	55                   	push   %ebp
  1023d1:	89 e5                	mov    %esp,%ebp
  1023d3:	53                   	push   %ebx
  1023d4:	83 ec 10             	sub    $0x10,%esp
  1023d7:	68 fe ff 00 00       	push   $0xfffe
  1023dc:	e8 7f 44 00 00       	call   106860 <mmc_read>
  1023e1:	0f b6 d8             	movzbl %al,%ebx
  1023e4:	c7 04 24 ff ff 00 00 	movl   $0xffff,(%esp)
  1023eb:	e8 70 44 00 00       	call   106860 <mmc_read>
  1023f0:	c1 e0 08             	shl    $0x8,%eax
  1023f3:	01 d8                	add    %ebx,%eax
  1023f5:	8b 5d fc             	mov    -0x4(%ebp),%ebx
  1023f8:	c9                   	leave  
  1023f9:	c3                   	ret    
  1023fa:	66 90                	xchg   %ax,%ax

001023fc <cpu_stack_pushb>:
  1023fc:	55                   	push   %ebp
  1023fd:	89 e5                	mov    %esp,%ebp
  1023ff:	0f b6 05 82 19 2b 00 	movzbl 0x2b1982,%eax
  102406:	8d 50 ff             	lea    -0x1(%eax),%edx
  102409:	88 15 82 19 2b 00    	mov    %dl,0x2b1982
  10240f:	8b 55 08             	mov    0x8(%ebp),%edx
  102412:	88 90 c0 1e 2b 00    	mov    %dl,0x2b1ec0(%eax)
  102418:	5d                   	pop    %ebp
  102419:	c3                   	ret    
  10241a:	66 90                	xchg   %ax,%ax

0010241c <cpu_stack_pushw>:
  10241c:	55                   	push   %ebp
  10241d:	89 e5                	mov    %esp,%ebp
  10241f:	8b 55 08             	mov    0x8(%ebp),%edx
  102422:	0f b6 05 82 19 2b 00 	movzbl 0x2b1982,%eax
  102429:	8d 88 ff 00 00 00    	lea    0xff(%eax),%ecx
  10242f:	0f b7 c9             	movzwl %cx,%ecx
  102432:	88 91 c0 1d 2b 00    	mov    %dl,0x2b1dc0(%ecx)
  102438:	05 00 01 00 00       	add    $0x100,%eax
  10243d:	0f b7 c0             	movzwl %ax,%eax
  102440:	66 c1 ea 08          	shr    $0x8,%dx
  102444:	88 90 c0 1d 2b 00    	mov    %dl,0x2b1dc0(%eax)
  10244a:	a0 82 19 2b 00       	mov    0x2b1982,%al
  10244f:	83 e8 02             	sub    $0x2,%eax
  102452:	a2 82 19 2b 00       	mov    %al,0x2b1982
  102457:	5d                   	pop    %ebp
  102458:	c3                   	ret    
  102459:	8d 76 00             	lea    0x0(%esi),%esi

0010245c <cpu_stack_popb>:
  10245c:	55                   	push   %ebp
  10245d:	89 e5                	mov    %esp,%ebp
  10245f:	a0 82 19 2b 00       	mov    0x2b1982,%al
  102464:	40                   	inc    %eax
  102465:	a2 82 19 2b 00       	mov    %al,0x2b1982
  10246a:	0f b6 c0             	movzbl %al,%eax
  10246d:	8a 80 c0 1e 2b 00    	mov    0x2b1ec0(%eax),%al
  102473:	5d                   	pop    %ebp
  102474:	c3                   	ret    
  102475:	8d 76 00             	lea    0x0(%esi),%esi

00102478 <cpu_stack_popw>:
  102478:	55                   	push   %ebp
  102479:	89 e5                	mov    %esp,%ebp
  10247b:	a0 82 19 2b 00       	mov    0x2b1982,%al
  102480:	8d 50 02             	lea    0x2(%eax),%edx
  102483:	88 15 82 19 2b 00    	mov    %dl,0x2b1982
  102489:	0f b6 d2             	movzbl %dl,%edx
  10248c:	8d 82 00 01 00 00    	lea    0x100(%edx),%eax
  102492:	0f b7 c0             	movzwl %ax,%eax
  102495:	0f b6 80 c0 1d 2b 00 	movzbl 0x2b1dc0(%eax),%eax
  10249c:	c1 e0 08             	shl    $0x8,%eax
  10249f:	81 c2 ff 00 00 00    	add    $0xff,%edx
  1024a5:	0f b7 d2             	movzwl %dx,%edx
  1024a8:	0f b6 92 c0 1d 2b 00 	movzbl 0x2b1dc0(%edx),%edx
  1024af:	01 d0                	add    %edx,%eax
  1024b1:	5d                   	pop    %ebp
  1024b2:	c3                   	ret    
  1024b3:	90                   	nop

001024b4 <cpu_init>:
  1024b4:	55                   	push   %ebp
  1024b5:	89 e5                	mov    %esp,%ebp
  1024b7:	c7 05 e0 a1 2b 00 07 	movl   $0x7,0x2ba1e0
  1024be:	00 00 00 
  1024c1:	c7 05 80 11 2b 00 4c 	movl   $0x10204c,0x2b1180
  1024c8:	20 10 00 
  1024cb:	c7 05 a0 19 2b 00 6c 	movl   $0x10756c,0x2b19a0
  1024d2:	75 10 00 
  1024d5:	c7 05 80 15 2b 00 c0 	movl   $0x1054c0,0x2b1580
  1024dc:	54 10 00 
  1024df:	c7 05 c0 9d 2b 00 01 	movl   $0x1,0x2b9dc0
  1024e6:	00 00 00 
  1024e9:	c7 05 e4 a1 2b 00 06 	movl   $0x6,0x2ba1e4
  1024f0:	00 00 00 
  1024f3:	c7 05 84 11 2b 00 d8 	movl   $0x100dd8,0x2b1184
  1024fa:	0d 10 00 
  1024fd:	c7 05 a4 19 2b 00 70 	movl   $0x107570,0x2b19a4
  102504:	75 10 00 
  102507:	c7 05 84 15 2b 00 bc 	movl   $0x1061bc,0x2b1584
  10250e:	61 10 00 
  102511:	c7 05 c4 9d 2b 00 01 	movl   $0x1,0x2b9dc4
  102518:	00 00 00 
  10251b:	c7 05 f4 a1 2b 00 03 	movl   $0x3,0x2ba1f4
  102522:	00 00 00 
  102525:	c7 05 94 11 2b 00 d8 	movl   $0x100dd8,0x2b1194
  10252c:	0d 10 00 
  10252f:	c7 05 b4 19 2b 00 70 	movl   $0x107570,0x2b19b4
  102536:	75 10 00 
  102539:	c7 05 94 15 2b 00 58 	movl   $0x105558,0x2b1594
  102540:	55 10 00 
  102543:	c7 05 d4 9d 2b 00 01 	movl   $0x1,0x2b9dd4
  10254a:	00 00 00 
  10254d:	c7 05 f8 a1 2b 00 05 	movl   $0x5,0x2ba1f8
  102554:	00 00 00 
  102557:	c7 05 98 11 2b 00 f4 	movl   $0x101df4,0x2b1198
  10255e:	1d 10 00 
  102561:	c7 05 b8 19 2b 00 74 	movl   $0x107574,0x2b19b8
  102568:	75 10 00 
  10256b:	c7 05 98 15 2b 00 58 	movl   $0x105558,0x2b1598
  102572:	55 10 00 
  102575:	c7 05 d8 9d 2b 00 01 	movl   $0x1,0x2b9dd8
  10257c:	00 00 00 
  10257f:	c7 05 00 a2 2b 00 03 	movl   $0x3,0x2ba200
  102586:	00 00 00 
  102589:	c7 05 a0 11 2b 00 84 	movl   $0x101984,0x2b11a0
  102590:	19 10 00 
  102593:	c7 05 c0 19 2b 00 78 	movl   $0x107578,0x2b19c0
  10259a:	75 10 00 
  10259d:	c7 05 a0 15 2b 00 c0 	movl   $0x1054c0,0x2b15a0
  1025a4:	54 10 00 
  1025a7:	c7 05 e0 9d 2b 00 01 	movl   $0x1,0x2b9de0
  1025ae:	00 00 00 
  1025b1:	c7 05 04 a2 2b 00 02 	movl   $0x2,0x2ba204
  1025b8:	00 00 00 
  1025bb:	c7 05 a4 11 2b 00 d8 	movl   $0x100dd8,0x2b11a4
  1025c2:	0d 10 00 
  1025c5:	c7 05 c4 19 2b 00 70 	movl   $0x107570,0x2b19c4
  1025cc:	75 10 00 
  1025cf:	c7 05 a4 15 2b 00 c8 	movl   $0x1054c8,0x2b15a4
  1025d6:	54 10 00 
  1025d9:	c7 05 e4 9d 2b 00 01 	movl   $0x1,0x2b9de4
  1025e0:	00 00 00 
  1025e3:	c7 05 08 a2 2b 00 02 	movl   $0x2,0x2ba208
  1025ea:	00 00 00 
  1025ed:	c7 05 a8 11 2b 00 6c 	movl   $0x10126c,0x2b11a8
  1025f4:	12 10 00 
  1025f7:	c7 05 c8 19 2b 00 74 	movl   $0x107574,0x2b19c8
  1025fe:	75 10 00 
  102601:	c7 05 a8 15 2b 00 c0 	movl   $0x1054c0,0x2b15a8
  102608:	54 10 00 
  10260b:	c7 05 e8 9d 2b 00 01 	movl   $0x1,0x2b9de8
  102612:	00 00 00 
  102615:	c7 05 14 a2 2b 00 04 	movl   $0x4,0x2ba214
  10261c:	00 00 00 
  10261f:	c7 05 b4 11 2b 00 d8 	movl   $0x100dd8,0x2b11b4
  102626:	0d 10 00 
  102629:	c7 05 d4 19 2b 00 70 	movl   $0x107570,0x2b19d4
  102630:	75 10 00 
  102633:	c7 05 b4 15 2b 00 3c 	movl   $0x10573c,0x2b15b4
  10263a:	57 10 00 
  10263d:	c7 05 f4 9d 2b 00 01 	movl   $0x1,0x2b9df4
  102644:	00 00 00 
  102647:	c7 05 18 a2 2b 00 06 	movl   $0x6,0x2ba218
  10264e:	00 00 00 
  102651:	c7 05 b8 11 2b 00 f4 	movl   $0x101df4,0x2b11b8
  102658:	1d 10 00 
  10265b:	c7 05 d8 19 2b 00 74 	movl   $0x107574,0x2b19d8
  102662:	75 10 00 
  102665:	c7 05 b8 15 2b 00 3c 	movl   $0x10573c,0x2b15b8
  10266c:	57 10 00 
  10266f:	c7 05 f8 9d 2b 00 01 	movl   $0x1,0x2b9df8
  102676:	00 00 00 
  102679:	c7 05 20 a2 2b 00 02 	movl   $0x2,0x2ba220
  102680:	00 00 00 
  102683:	c7 05 c0 11 2b 00 00 	movl   $0x101000,0x2b11c0
  10268a:	10 10 00 
  10268d:	c7 05 e0 19 2b 00 7c 	movl   $0x10757c,0x2b19e0
  102694:	75 10 00 
  102697:	c7 05 c0 15 2b 00 34 	movl   $0x105d34,0x2b15c0
  10269e:	5d 10 00 
  1026a1:	c7 05 00 9e 2b 00 01 	movl   $0x1,0x2b9e00
  1026a8:	00 00 00 
  1026ab:	c7 05 24 a2 2b 00 05 	movl   $0x5,0x2ba224
  1026b2:	00 00 00 
  1026b5:	c7 05 c4 11 2b 00 d8 	movl   $0x100dd8,0x2b11c4
  1026bc:	0d 10 00 
  1026bf:	c7 05 e4 19 2b 00 70 	movl   $0x107570,0x2b19e4
  1026c6:	75 10 00 
  1026c9:	c7 05 c4 15 2b 00 24 	movl   $0x106324,0x2b15c4
  1026d0:	63 10 00 
  1026d3:	c7 05 04 9e 2b 00 01 	movl   $0x1,0x2b9e04
  1026da:	00 00 00 
  1026dd:	c7 05 34 a2 2b 00 04 	movl   $0x4,0x2ba234
  1026e4:	00 00 00 
  1026e7:	c7 05 d4 11 2b 00 d8 	movl   $0x100dd8,0x2b11d4
  1026ee:	0d 10 00 
  1026f1:	c7 05 f4 19 2b 00 70 	movl   $0x107570,0x2b19f4
  1026f8:	75 10 00 
  1026fb:	c7 05 d4 15 2b 00 f4 	movl   $0x1055f4,0x2b15d4
  102702:	55 10 00 
  102705:	c7 05 14 9e 2b 00 01 	movl   $0x1,0x2b9e14
  10270c:	00 00 00 
  10270f:	c7 05 38 a2 2b 00 06 	movl   $0x6,0x2ba238
  102716:	00 00 00 
  102719:	c7 05 d8 11 2b 00 f4 	movl   $0x101df4,0x2b11d8
  102720:	1d 10 00 
  102723:	c7 05 f8 19 2b 00 74 	movl   $0x107574,0x2b19f8
  10272a:	75 10 00 
  10272d:	c7 05 d8 15 2b 00 f4 	movl   $0x1055f4,0x2b15d8
  102734:	55 10 00 
  102737:	c7 05 18 9e 2b 00 01 	movl   $0x1,0x2b9e18
  10273e:	00 00 00 
  102741:	c7 05 40 a2 2b 00 02 	movl   $0x2,0x2ba240
  102748:	00 00 00 
  10274b:	c7 05 e0 11 2b 00 d8 	movl   $0x1014d8,0x2b11e0
  102752:	14 10 00 
  102755:	c7 05 00 1a 2b 00 80 	movl   $0x107580,0x2b1a00
  10275c:	75 10 00 
  10275f:	c7 05 e0 15 2b 00 c0 	movl   $0x1054c0,0x2b15e0
  102766:	54 10 00 
  102769:	c7 05 20 9e 2b 00 01 	movl   $0x1,0x2b9e20
  102770:	00 00 00 
  102773:	c7 05 44 a2 2b 00 04 	movl   $0x4,0x2ba244
  10277a:	00 00 00 
  10277d:	c7 05 e4 11 2b 00 d8 	movl   $0x100dd8,0x2b11e4
  102784:	0d 10 00 
  102787:	c7 05 04 1a 2b 00 70 	movl   $0x107570,0x2b1a04
  10278e:	75 10 00 
  102791:	c7 05 e4 15 2b 00 20 	movl   $0x105b20,0x2b15e4
  102798:	5b 10 00 
  10279b:	c7 05 24 9e 2b 00 01 	movl   $0x1,0x2b9e24
  1027a2:	00 00 00 
  1027a5:	c7 05 54 a2 2b 00 04 	movl   $0x4,0x2ba254
  1027ac:	00 00 00 
  1027af:	c7 05 f4 11 2b 00 d8 	movl   $0x100dd8,0x2b11f4
  1027b6:	0d 10 00 
  1027b9:	c7 05 14 1a 2b 00 70 	movl   $0x107570,0x2b1a14
  1027c0:	75 10 00 
  1027c3:	c7 05 f4 15 2b 00 0c 	movl   $0x10590c,0x2b15f4
  1027ca:	59 10 00 
  1027cd:	c7 05 34 9e 2b 00 01 	movl   $0x1,0x2b9e34
  1027d4:	00 00 00 
  1027d7:	c7 05 58 a2 2b 00 07 	movl   $0x7,0x2ba258
  1027de:	00 00 00 
  1027e1:	c7 05 f8 11 2b 00 f4 	movl   $0x101df4,0x2b11f8
  1027e8:	1d 10 00 
  1027eb:	c7 05 18 1a 2b 00 74 	movl   $0x107574,0x2b1a18
  1027f2:	75 10 00 
  1027f5:	c7 05 f8 15 2b 00 0c 	movl   $0x10590c,0x2b15f8
  1027fc:	59 10 00 
  1027ff:	c7 05 38 9e 2b 00 01 	movl   $0x1,0x2b9e38
  102806:	00 00 00 
  102809:	c7 05 60 a2 2b 00 06 	movl   $0x6,0x2ba260
  102810:	00 00 00 
  102813:	c7 05 00 12 2b 00 a4 	movl   $0x101da4,0x2b1200
  10281a:	1d 10 00 
  10281d:	c7 05 20 1a 2b 00 84 	movl   $0x107584,0x2b1a20
  102824:	75 10 00 
  102827:	c7 05 00 16 2b 00 3c 	movl   $0x10573c,0x2b1600
  10282e:	57 10 00 
  102831:	c7 05 40 9e 2b 00 01 	movl   $0x1,0x2b9e40
  102838:	00 00 00 
  10283b:	c7 05 64 a2 2b 00 06 	movl   $0x6,0x2ba264
  102842:	00 00 00 
  102845:	c7 05 04 12 2b 00 78 	movl   $0x100d78,0x2b1204
  10284c:	0d 10 00 
  10284f:	c7 05 24 1a 2b 00 88 	movl   $0x107588,0x2b1a24
  102856:	75 10 00 
  102859:	c7 05 04 16 2b 00 bc 	movl   $0x1061bc,0x2b1604
  102860:	61 10 00 
  102863:	c7 05 44 9e 2b 00 01 	movl   $0x1,0x2b9e44
  10286a:	00 00 00 
  10286d:	c7 05 70 a2 2b 00 03 	movl   $0x3,0x2ba270
  102874:	00 00 00 
  102877:	c7 05 10 12 2b 00 28 	movl   $0x101228,0x2b1210
  10287e:	12 10 00 
  102881:	c7 05 30 1a 2b 00 8c 	movl   $0x10758c,0x2b1a30
  102888:	75 10 00 
  10288b:	c7 05 10 16 2b 00 58 	movl   $0x105558,0x2b1610
  102892:	55 10 00 
  102895:	c7 05 50 9e 2b 00 01 	movl   $0x1,0x2b9e50
  10289c:	00 00 00 
  10289f:	c7 05 74 a2 2b 00 03 	movl   $0x3,0x2ba274
  1028a6:	00 00 00 
  1028a9:	c7 05 14 12 2b 00 78 	movl   $0x100d78,0x2b1214
  1028b0:	0d 10 00 
  1028b3:	c7 05 34 1a 2b 00 88 	movl   $0x107588,0x2b1a34
  1028ba:	75 10 00 
  1028bd:	c7 05 14 16 2b 00 58 	movl   $0x105558,0x2b1614
  1028c4:	55 10 00 
  1028c7:	c7 05 54 9e 2b 00 01 	movl   $0x1,0x2b9e54
  1028ce:	00 00 00 
  1028d1:	c7 05 78 a2 2b 00 05 	movl   $0x5,0x2ba278
  1028d8:	00 00 00 
  1028db:	c7 05 18 12 2b 00 d8 	movl   $0x1020d8,0x2b1218
  1028e2:	20 10 00 
  1028e5:	c7 05 38 1a 2b 00 90 	movl   $0x107590,0x2b1a38
  1028ec:	75 10 00 
  1028ef:	c7 05 18 16 2b 00 58 	movl   $0x105558,0x2b1618
  1028f6:	55 10 00 
  1028f9:	c7 05 58 9e 2b 00 01 	movl   $0x1,0x2b9e58
  102900:	00 00 00 
  102903:	c7 05 80 a2 2b 00 04 	movl   $0x4,0x2ba280
  10290a:	00 00 00 
  10290d:	c7 05 20 12 2b 00 cc 	movl   $0x1015cc,0x2b1220
  102914:	15 10 00 
  102917:	c7 05 40 1a 2b 00 94 	movl   $0x107594,0x2b1a40
  10291e:	75 10 00 
  102921:	c7 05 20 16 2b 00 c0 	movl   $0x1054c0,0x2b1620
  102928:	54 10 00 
  10292b:	c7 05 60 9e 2b 00 01 	movl   $0x1,0x2b9e60
  102932:	00 00 00 
  102935:	c7 05 84 a2 2b 00 02 	movl   $0x2,0x2ba284
  10293c:	00 00 00 
  10293f:	c7 05 24 12 2b 00 78 	movl   $0x100d78,0x2b1224
  102946:	0d 10 00 
  102949:	c7 05 44 1a 2b 00 88 	movl   $0x107588,0x2b1a44
  102950:	75 10 00 
  102953:	c7 05 24 16 2b 00 c8 	movl   $0x1054c8,0x2b1624
  10295a:	54 10 00 
  10295d:	c7 05 64 9e 2b 00 01 	movl   $0x1,0x2b9e64
  102964:	00 00 00 
  102967:	c7 05 88 a2 2b 00 02 	movl   $0x2,0x2ba288
  10296e:	00 00 00 
  102971:	c7 05 28 12 2b 00 f8 	movl   $0x1012f8,0x2b1228
  102978:	12 10 00 
  10297b:	c7 05 48 1a 2b 00 90 	movl   $0x107590,0x2b1a48
  102982:	75 10 00 
  102985:	c7 05 28 16 2b 00 c0 	movl   $0x1054c0,0x2b1628
  10298c:	54 10 00 
  10298f:	c7 05 68 9e 2b 00 01 	movl   $0x1,0x2b9e68
  102996:	00 00 00 
  102999:	c7 05 90 a2 2b 00 04 	movl   $0x4,0x2ba290
  1029a0:	00 00 00 
  1029a3:	c7 05 30 12 2b 00 28 	movl   $0x101228,0x2b1230
  1029aa:	12 10 00 
  1029ad:	c7 05 50 1a 2b 00 8c 	movl   $0x10758c,0x2b1a50
  1029b4:	75 10 00 
  1029b7:	c7 05 30 16 2b 00 3c 	movl   $0x10573c,0x2b1630
  1029be:	57 10 00 
  1029c1:	c7 05 70 9e 2b 00 01 	movl   $0x1,0x2b9e70
  1029c8:	00 00 00 
  1029cb:	c7 05 94 a2 2b 00 02 	movl   $0x2,0x2ba294
  1029d2:	00 00 00 
  1029d5:	c7 05 34 12 2b 00 78 	movl   $0x100d78,0x2b1234
  1029dc:	0d 10 00 
  1029df:	c7 05 54 1a 2b 00 88 	movl   $0x107588,0x2b1a54
  1029e6:	75 10 00 
  1029e9:	c7 05 34 16 2b 00 3c 	movl   $0x10573c,0x2b1634
  1029f0:	57 10 00 
  1029f3:	c7 05 74 9e 2b 00 01 	movl   $0x1,0x2b9e74
  1029fa:	00 00 00 
  1029fd:	c7 05 98 a2 2b 00 06 	movl   $0x6,0x2ba298
  102a04:	00 00 00 
  102a07:	c7 05 38 12 2b 00 d8 	movl   $0x1020d8,0x2b1238
  102a0e:	20 10 00 
  102a11:	c7 05 58 1a 2b 00 90 	movl   $0x107590,0x2b1a58
  102a18:	75 10 00 
  102a1b:	c7 05 38 16 2b 00 3c 	movl   $0x10573c,0x2b1638
  102a22:	57 10 00 
  102a25:	c7 05 78 9e 2b 00 01 	movl   $0x1,0x2b9e78
  102a2c:	00 00 00 
  102a2f:	c7 05 a0 a2 2b 00 02 	movl   $0x2,0x2ba2a0
  102a36:	00 00 00 
  102a39:	c7 05 40 12 2b 00 90 	movl   $0x100f90,0x2b1240
  102a40:	0f 10 00 
  102a43:	c7 05 60 1a 2b 00 98 	movl   $0x107598,0x2b1a60
  102a4a:	75 10 00 
  102a4d:	c7 05 40 16 2b 00 34 	movl   $0x105d34,0x2b1640
  102a54:	5d 10 00 
  102a57:	c7 05 80 9e 2b 00 01 	movl   $0x1,0x2b9e80
  102a5e:	00 00 00 
  102a61:	c7 05 a4 a2 2b 00 05 	movl   $0x5,0x2ba2a4
  102a68:	00 00 00 
  102a6b:	c7 05 44 12 2b 00 78 	movl   $0x100d78,0x2b1244
  102a72:	0d 10 00 
  102a75:	c7 05 64 1a 2b 00 88 	movl   $0x107588,0x2b1a64
  102a7c:	75 10 00 
  102a7f:	c7 05 44 16 2b 00 24 	movl   $0x106324,0x2b1644
  102a86:	63 10 00 
  102a89:	c7 05 84 9e 2b 00 01 	movl   $0x1,0x2b9e84
  102a90:	00 00 00 
  102a93:	c7 05 b4 a2 2b 00 04 	movl   $0x4,0x2ba2b4
  102a9a:	00 00 00 
  102a9d:	c7 05 54 12 2b 00 78 	movl   $0x100d78,0x2b1254
  102aa4:	0d 10 00 
  102aa7:	c7 05 74 1a 2b 00 88 	movl   $0x107588,0x2b1a74
  102aae:	75 10 00 
  102ab1:	c7 05 54 16 2b 00 f4 	movl   $0x1055f4,0x2b1654
  102ab8:	55 10 00 
  102abb:	c7 05 94 9e 2b 00 01 	movl   $0x1,0x2b9e94
  102ac2:	00 00 00 
  102ac5:	c7 05 b8 a2 2b 00 06 	movl   $0x6,0x2ba2b8
  102acc:	00 00 00 
  102acf:	c7 05 58 12 2b 00 d8 	movl   $0x1020d8,0x2b1258
  102ad6:	20 10 00 
  102ad9:	c7 05 78 1a 2b 00 90 	movl   $0x107590,0x2b1a78
  102ae0:	75 10 00 
  102ae3:	c7 05 58 16 2b 00 f4 	movl   $0x1055f4,0x2b1658
  102aea:	55 10 00 
  102aed:	c7 05 98 9e 2b 00 01 	movl   $0x1,0x2b9e98
  102af4:	00 00 00 
  102af7:	c7 05 c0 a2 2b 00 02 	movl   $0x2,0x2ba2c0
  102afe:	00 00 00 
  102b01:	c7 05 60 12 2b 00 38 	movl   $0x101538,0x2b1260
  102b08:	15 10 00 
  102b0b:	c7 05 80 1a 2b 00 9c 	movl   $0x10759c,0x2b1a80
  102b12:	75 10 00 
  102b15:	c7 05 60 16 2b 00 c0 	movl   $0x1054c0,0x2b1660
  102b1c:	54 10 00 
  102b1f:	c7 05 a0 9e 2b 00 01 	movl   $0x1,0x2b9ea0
  102b26:	00 00 00 
  102b29:	c7 05 c4 a2 2b 00 04 	movl   $0x4,0x2ba2c4
  102b30:	00 00 00 
  102b33:	c7 05 64 12 2b 00 78 	movl   $0x100d78,0x2b1264
  102b3a:	0d 10 00 
  102b3d:	c7 05 84 1a 2b 00 88 	movl   $0x107588,0x2b1a84
  102b44:	75 10 00 
  102b47:	c7 05 64 16 2b 00 20 	movl   $0x105b20,0x2b1664
  102b4e:	5b 10 00 
  102b51:	c7 05 a4 9e 2b 00 01 	movl   $0x1,0x2b9ea4
  102b58:	00 00 00 
  102b5b:	c7 05 d4 a2 2b 00 04 	movl   $0x4,0x2ba2d4
  102b62:	00 00 00 
  102b65:	c7 05 74 12 2b 00 78 	movl   $0x100d78,0x2b1274
  102b6c:	0d 10 00 
  102b6f:	c7 05 94 1a 2b 00 88 	movl   $0x107588,0x2b1a94
  102b76:	75 10 00 
  102b79:	c7 05 74 16 2b 00 0c 	movl   $0x10590c,0x2b1674
  102b80:	59 10 00 
  102b83:	c7 05 b4 9e 2b 00 01 	movl   $0x1,0x2b9eb4
  102b8a:	00 00 00 
  102b8d:	c7 05 d8 a2 2b 00 07 	movl   $0x7,0x2ba2d8
  102b94:	00 00 00 
  102b97:	c7 05 78 12 2b 00 d8 	movl   $0x1020d8,0x2b1278
  102b9e:	20 10 00 
  102ba1:	c7 05 98 1a 2b 00 90 	movl   $0x107590,0x2b1a98
  102ba8:	75 10 00 
  102bab:	c7 05 78 16 2b 00 0c 	movl   $0x10590c,0x2b1678
  102bb2:	59 10 00 
  102bb5:	c7 05 b8 9e 2b 00 01 	movl   $0x1,0x2b9eb8
  102bbc:	00 00 00 
  102bbf:	c7 05 e0 a2 2b 00 06 	movl   $0x6,0x2ba2e0
  102bc6:	00 00 00 
  102bc9:	c7 05 80 12 2b 00 24 	movl   $0x101624,0x2b1280
  102bd0:	16 10 00 
  102bd3:	c7 05 a0 1a 2b 00 a0 	movl   $0x1075a0,0x2b1aa0
  102bda:	75 10 00 
  102bdd:	c7 05 80 16 2b 00 c0 	movl   $0x1054c0,0x2b1680
  102be4:	54 10 00 
  102be7:	c7 05 c0 9e 2b 00 01 	movl   $0x1,0x2b9ec0
  102bee:	00 00 00 
  102bf1:	c7 05 e4 a2 2b 00 06 	movl   $0x6,0x2ba2e4
  102bf8:	00 00 00 
  102bfb:	c7 05 84 12 2b 00 a8 	movl   $0x100da8,0x2b1284
  102c02:	0d 10 00 
  102c05:	c7 05 a4 1a 2b 00 a4 	movl   $0x1075a4,0x2b1aa4
  102c0c:	75 10 00 
  102c0f:	c7 05 84 16 2b 00 bc 	movl   $0x1061bc,0x2b1684
  102c16:	61 10 00 
  102c19:	c7 05 c4 9e 2b 00 01 	movl   $0x1,0x2b9ec4
  102c20:	00 00 00 
  102c23:	c7 05 f4 a2 2b 00 03 	movl   $0x3,0x2ba2f4
  102c2a:	00 00 00 
  102c2d:	c7 05 94 12 2b 00 a8 	movl   $0x100da8,0x2b1294
  102c34:	0d 10 00 
  102c37:	c7 05 b4 1a 2b 00 a4 	movl   $0x1075a4,0x2b1ab4
  102c3e:	75 10 00 
  102c41:	c7 05 94 16 2b 00 58 	movl   $0x105558,0x2b1694
  102c48:	55 10 00 
  102c4b:	c7 05 d4 9e 2b 00 01 	movl   $0x1,0x2b9ed4
  102c52:	00 00 00 
  102c55:	c7 05 f8 a2 2b 00 05 	movl   $0x5,0x2ba2f8
  102c5c:	00 00 00 
  102c5f:	c7 05 98 12 2b 00 1c 	movl   $0x101f1c,0x2b1298
  102c66:	1f 10 00 
  102c69:	c7 05 b8 1a 2b 00 a8 	movl   $0x1075a8,0x2b1ab8
  102c70:	75 10 00 
  102c73:	c7 05 98 16 2b 00 58 	movl   $0x105558,0x2b1698
  102c7a:	55 10 00 
  102c7d:	c7 05 d8 9e 2b 00 01 	movl   $0x1,0x2b9ed8
  102c84:	00 00 00 
  102c87:	c7 05 00 a3 2b 00 03 	movl   $0x3,0x2ba300
  102c8e:	00 00 00 
  102c91:	c7 05 a0 12 2b 00 60 	movl   $0x101960,0x2b12a0
  102c98:	19 10 00 
  102c9b:	c7 05 c0 1a 2b 00 ac 	movl   $0x1075ac,0x2b1ac0
  102ca2:	75 10 00 
  102ca5:	c7 05 a0 16 2b 00 c0 	movl   $0x1054c0,0x2b16a0
  102cac:	54 10 00 
  102caf:	c7 05 e0 9e 2b 00 01 	movl   $0x1,0x2b9ee0
  102cb6:	00 00 00 
  102cb9:	c7 05 04 a3 2b 00 02 	movl   $0x2,0x2ba304
  102cc0:	00 00 00 
  102cc3:	c7 05 a4 12 2b 00 a8 	movl   $0x100da8,0x2b12a4
  102cca:	0d 10 00 
  102ccd:	c7 05 c4 1a 2b 00 a4 	movl   $0x1075a4,0x2b1ac4
  102cd4:	75 10 00 
  102cd7:	c7 05 a4 16 2b 00 c8 	movl   $0x1054c8,0x2b16a4
  102cde:	54 10 00 
  102ce1:	c7 05 e4 9e 2b 00 01 	movl   $0x1,0x2b9ee4
  102ce8:	00 00 00 
  102ceb:	c7 05 08 a3 2b 00 02 	movl   $0x2,0x2ba308
  102cf2:	00 00 00 
  102cf5:	c7 05 a8 12 2b 00 b4 	movl   $0x1012b4,0x2b12a8
  102cfc:	12 10 00 
  102cff:	c7 05 c8 1a 2b 00 a8 	movl   $0x1075a8,0x2b1ac8
  102d06:	75 10 00 
  102d09:	c7 05 a8 16 2b 00 c0 	movl   $0x1054c0,0x2b16a8
  102d10:	54 10 00 
  102d13:	c7 05 e8 9e 2b 00 01 	movl   $0x1,0x2b9ee8
  102d1a:	00 00 00 
  102d1d:	c7 05 10 a3 2b 00 03 	movl   $0x3,0x2ba310
  102d24:	00 00 00 
  102d27:	c7 05 b0 12 2b 00 38 	movl   $0x101038,0x2b12b0
  102d2e:	10 10 00 
  102d31:	c7 05 d0 1a 2b 00 b0 	movl   $0x1075b0,0x2b1ad0
  102d38:	75 10 00 
  102d3b:	c7 05 b0 16 2b 00 3c 	movl   $0x10573c,0x2b16b0
  102d42:	57 10 00 
  102d45:	c7 05 f0 9e 2b 00 01 	movl   $0x1,0x2b9ef0
  102d4c:	00 00 00 
  102d4f:	c7 05 14 a3 2b 00 04 	movl   $0x4,0x2ba314
  102d56:	00 00 00 
  102d59:	c7 05 b4 12 2b 00 a8 	movl   $0x100da8,0x2b12b4
  102d60:	0d 10 00 
  102d63:	c7 05 d4 1a 2b 00 a4 	movl   $0x1075a4,0x2b1ad4
  102d6a:	75 10 00 
  102d6d:	c7 05 b4 16 2b 00 3c 	movl   $0x10573c,0x2b16b4
  102d74:	57 10 00 
  102d77:	c7 05 f4 9e 2b 00 01 	movl   $0x1,0x2b9ef4
  102d7e:	00 00 00 
  102d81:	c7 05 18 a3 2b 00 06 	movl   $0x6,0x2ba318
  102d88:	00 00 00 
  102d8b:	c7 05 b8 12 2b 00 1c 	movl   $0x101f1c,0x2b12b8
  102d92:	1f 10 00 
  102d95:	c7 05 d8 1a 2b 00 a8 	movl   $0x1075a8,0x2b1ad8
  102d9c:	75 10 00 
  102d9f:	c7 05 b8 16 2b 00 3c 	movl   $0x10573c,0x2b16b8
  102da6:	57 10 00 
  102da9:	c7 05 f8 9e 2b 00 01 	movl   $0x1,0x2b9ef8
  102db0:	00 00 00 
  102db3:	c7 05 20 a3 2b 00 02 	movl   $0x2,0x2ba320
  102dba:	00 00 00 
  102dbd:	c7 05 c0 12 2b 00 1c 	movl   $0x10101c,0x2b12c0
  102dc4:	10 10 00 
  102dc7:	c7 05 e0 1a 2b 00 b4 	movl   $0x1075b4,0x2b1ae0
  102dce:	75 10 00 
  102dd1:	c7 05 c0 16 2b 00 34 	movl   $0x105d34,0x2b16c0
  102dd8:	5d 10 00 
  102ddb:	c7 05 00 9f 2b 00 01 	movl   $0x1,0x2b9f00
  102de2:	00 00 00 
  102de5:	c7 05 24 a3 2b 00 05 	movl   $0x5,0x2ba324
  102dec:	00 00 00 
  102def:	c7 05 c4 12 2b 00 a8 	movl   $0x100da8,0x2b12c4
  102df6:	0d 10 00 
  102df9:	c7 05 e4 1a 2b 00 a4 	movl   $0x1075a4,0x2b1ae4
  102e00:	75 10 00 
  102e03:	c7 05 c4 16 2b 00 24 	movl   $0x106324,0x2b16c4
  102e0a:	63 10 00 
  102e0d:	c7 05 04 9f 2b 00 01 	movl   $0x1,0x2b9f04
  102e14:	00 00 00 
  102e17:	c7 05 34 a3 2b 00 04 	movl   $0x4,0x2ba334
  102e1e:	00 00 00 
  102e21:	c7 05 d4 12 2b 00 a8 	movl   $0x100da8,0x2b12d4
  102e28:	0d 10 00 
  102e2b:	c7 05 f4 1a 2b 00 a4 	movl   $0x1075a4,0x2b1af4
  102e32:	75 10 00 
  102e35:	c7 05 d4 16 2b 00 f4 	movl   $0x1055f4,0x2b16d4
  102e3c:	55 10 00 
  102e3f:	c7 05 14 9f 2b 00 01 	movl   $0x1,0x2b9f14
  102e46:	00 00 00 
  102e49:	c7 05 38 a3 2b 00 06 	movl   $0x6,0x2ba338
  102e50:	00 00 00 
  102e53:	c7 05 d8 12 2b 00 1c 	movl   $0x101f1c,0x2b12d8
  102e5a:	1f 10 00 
  102e5d:	c7 05 f8 1a 2b 00 a8 	movl   $0x1075a8,0x2b1af8
  102e64:	75 10 00 
  102e67:	c7 05 d8 16 2b 00 f4 	movl   $0x1055f4,0x2b16d8
  102e6e:	55 10 00 
  102e71:	c7 05 18 9f 2b 00 01 	movl   $0x1,0x2b9f18
  102e78:	00 00 00 
  102e7b:	c7 05 40 a3 2b 00 02 	movl   $0x2,0x2ba340
  102e82:	00 00 00 
  102e85:	c7 05 e0 12 2b 00 08 	movl   $0x101508,0x2b12e0
  102e8c:	15 10 00 
  102e8f:	c7 05 00 1b 2b 00 b8 	movl   $0x1075b8,0x2b1b00
  102e96:	75 10 00 
  102e99:	c7 05 e0 16 2b 00 c0 	movl   $0x1054c0,0x2b16e0
  102ea0:	54 10 00 
  102ea3:	c7 05 20 9f 2b 00 01 	movl   $0x1,0x2b9f20
  102eaa:	00 00 00 
  102ead:	c7 05 44 a3 2b 00 04 	movl   $0x4,0x2ba344
  102eb4:	00 00 00 
  102eb7:	c7 05 e4 12 2b 00 a8 	movl   $0x100da8,0x2b12e4
  102ebe:	0d 10 00 
  102ec1:	c7 05 04 1b 2b 00 a4 	movl   $0x1075a4,0x2b1b04
  102ec8:	75 10 00 
  102ecb:	c7 05 e4 16 2b 00 20 	movl   $0x105b20,0x2b16e4
  102ed2:	5b 10 00 
  102ed5:	c7 05 24 9f 2b 00 01 	movl   $0x1,0x2b9f24
  102edc:	00 00 00 
  102edf:	c7 05 54 a3 2b 00 04 	movl   $0x4,0x2ba354
  102ee6:	00 00 00 
  102ee9:	c7 05 f4 12 2b 00 a8 	movl   $0x100da8,0x2b12f4
  102ef0:	0d 10 00 
  102ef3:	c7 05 14 1b 2b 00 a4 	movl   $0x1075a4,0x2b1b14
  102efa:	75 10 00 
  102efd:	c7 05 f4 16 2b 00 0c 	movl   $0x10590c,0x2b16f4
  102f04:	59 10 00 
  102f07:	c7 05 34 9f 2b 00 01 	movl   $0x1,0x2b9f34
  102f0e:	00 00 00 
  102f11:	c7 05 58 a3 2b 00 07 	movl   $0x7,0x2ba358
  102f18:	00 00 00 
  102f1b:	c7 05 f8 12 2b 00 1c 	movl   $0x101f1c,0x2b12f8
  102f22:	1f 10 00 
  102f25:	c7 05 18 1b 2b 00 a8 	movl   $0x1075a8,0x2b1b18
  102f2c:	75 10 00 
  102f2f:	c7 05 f8 16 2b 00 0c 	movl   $0x10590c,0x2b16f8
  102f36:	59 10 00 
  102f39:	c7 05 38 9f 2b 00 01 	movl   $0x1,0x2b9f38
  102f40:	00 00 00 
  102f43:	c7 05 60 a3 2b 00 06 	movl   $0x6,0x2ba360
  102f4a:	00 00 00 
  102f4d:	c7 05 00 13 2b 00 88 	movl   $0x101588,0x2b1300
  102f54:	15 10 00 
  102f57:	c7 05 20 1b 2b 00 bc 	movl   $0x1075bc,0x2b1b20
  102f5e:	75 10 00 
  102f61:	c7 05 00 17 2b 00 c0 	movl   $0x1054c0,0x2b1700
  102f68:	54 10 00 
  102f6b:	c7 05 40 9f 2b 00 01 	movl   $0x1,0x2b9f40
  102f72:	00 00 00 
  102f75:	c7 05 64 a3 2b 00 06 	movl   $0x6,0x2ba364
  102f7c:	00 00 00 
  102f7f:	c7 05 04 13 2b 00 18 	movl   $0x101118,0x2b1304
  102f86:	11 10 00 
  102f89:	c7 05 24 1b 2b 00 c0 	movl   $0x1075c0,0x2b1b24
  102f90:	75 10 00 
  102f93:	c7 05 04 17 2b 00 bc 	movl   $0x1061bc,0x2b1704
  102f9a:	61 10 00 
  102f9d:	c7 05 44 9f 2b 00 01 	movl   $0x1,0x2b9f44
  102fa4:	00 00 00 
  102fa7:	c7 05 74 a3 2b 00 03 	movl   $0x3,0x2ba374
  102fae:	00 00 00 
  102fb1:	c7 05 14 13 2b 00 18 	movl   $0x101118,0x2b1314
  102fb8:	11 10 00 
  102fbb:	c7 05 34 1b 2b 00 c0 	movl   $0x1075c0,0x2b1b34
  102fc2:	75 10 00 
  102fc5:	c7 05 14 17 2b 00 58 	movl   $0x105558,0x2b1714
  102fcc:	55 10 00 
  102fcf:	c7 05 54 9f 2b 00 01 	movl   $0x1,0x2b9f54
  102fd6:	00 00 00 
  102fd9:	c7 05 78 a3 2b 00 05 	movl   $0x5,0x2ba378
  102fe0:	00 00 00 
  102fe3:	c7 05 18 13 2b 00 20 	movl   $0x102220,0x2b1318
  102fea:	22 10 00 
  102fed:	c7 05 38 1b 2b 00 c4 	movl   $0x1075c4,0x2b1b38
  102ff4:	75 10 00 
  102ff7:	c7 05 18 17 2b 00 58 	movl   $0x105558,0x2b1718
  102ffe:	55 10 00 
  103001:	c7 05 58 9f 2b 00 01 	movl   $0x1,0x2b9f58
  103008:	00 00 00 
  10300b:	c7 05 80 a3 2b 00 04 	movl   $0x4,0x2ba380
  103012:	00 00 00 
  103015:	c7 05 20 13 2b 00 f0 	movl   $0x1015f0,0x2b1320
  10301c:	15 10 00 
  10301f:	c7 05 40 1b 2b 00 c8 	movl   $0x1075c8,0x2b1b40
  103026:	75 10 00 
  103029:	c7 05 20 17 2b 00 c0 	movl   $0x1054c0,0x2b1720
  103030:	54 10 00 
  103033:	c7 05 60 9f 2b 00 01 	movl   $0x1,0x2b9f60
  10303a:	00 00 00 
  10303d:	c7 05 84 a3 2b 00 02 	movl   $0x2,0x2ba384
  103044:	00 00 00 
  103047:	c7 05 24 13 2b 00 18 	movl   $0x101118,0x2b1324
  10304e:	11 10 00 
  103051:	c7 05 44 1b 2b 00 c0 	movl   $0x1075c0,0x2b1b44
  103058:	75 10 00 
  10305b:	c7 05 24 17 2b 00 c8 	movl   $0x1054c8,0x2b1724
  103062:	54 10 00 
  103065:	c7 05 64 9f 2b 00 01 	movl   $0x1,0x2b9f64
  10306c:	00 00 00 
  10306f:	c7 05 88 a3 2b 00 02 	movl   $0x2,0x2ba388
  103076:	00 00 00 
  103079:	c7 05 28 13 2b 00 50 	movl   $0x101350,0x2b1328
  103080:	13 10 00 
  103083:	c7 05 48 1b 2b 00 c4 	movl   $0x1075c4,0x2b1b48
  10308a:	75 10 00 
  10308d:	c7 05 28 17 2b 00 c0 	movl   $0x1054c0,0x2b1728
  103094:	54 10 00 
  103097:	c7 05 68 9f 2b 00 01 	movl   $0x1,0x2b9f68
  10309e:	00 00 00 
  1030a1:	c7 05 90 a3 2b 00 05 	movl   $0x5,0x2ba390
  1030a8:	00 00 00 
  1030ab:	c7 05 30 13 2b 00 38 	movl   $0x101038,0x2b1330
  1030b2:	10 10 00 
  1030b5:	c7 05 50 1b 2b 00 b0 	movl   $0x1075b0,0x2b1b50
  1030bc:	75 10 00 
  1030bf:	c7 05 30 17 2b 00 f0 	movl   $0x105df0,0x2b1730
  1030c6:	5d 10 00 
  1030c9:	c7 05 70 9f 2b 00 01 	movl   $0x1,0x2b9f70
  1030d0:	00 00 00 
  1030d3:	c7 05 94 a3 2b 00 04 	movl   $0x4,0x2ba394
  1030da:	00 00 00 
  1030dd:	c7 05 34 13 2b 00 18 	movl   $0x101118,0x2b1334
  1030e4:	11 10 00 
  1030e7:	c7 05 54 1b 2b 00 c0 	movl   $0x1075c0,0x2b1b54
  1030ee:	75 10 00 
  1030f1:	c7 05 34 17 2b 00 3c 	movl   $0x10573c,0x2b1734
  1030f8:	57 10 00 
  1030fb:	c7 05 74 9f 2b 00 01 	movl   $0x1,0x2b9f74
  103102:	00 00 00 
  103105:	c7 05 98 a3 2b 00 06 	movl   $0x6,0x2ba398
  10310c:	00 00 00 
  10310f:	c7 05 38 13 2b 00 20 	movl   $0x102220,0x2b1338
  103116:	22 10 00 
  103119:	c7 05 58 1b 2b 00 c4 	movl   $0x1075c4,0x2b1b58
  103120:	75 10 00 
  103123:	c7 05 38 17 2b 00 3c 	movl   $0x10573c,0x2b1738
  10312a:	57 10 00 
  10312d:	c7 05 78 9f 2b 00 01 	movl   $0x1,0x2b9f78
  103134:	00 00 00 
  103137:	c7 05 a0 a3 2b 00 02 	movl   $0x2,0x2ba3a0
  10313e:	00 00 00 
  103141:	c7 05 40 13 2b 00 ac 	movl   $0x100fac,0x2b1340
  103148:	0f 10 00 
  10314b:	c7 05 60 1b 2b 00 cc 	movl   $0x1075cc,0x2b1b60
  103152:	75 10 00 
  103155:	c7 05 40 17 2b 00 34 	movl   $0x105d34,0x2b1740
  10315c:	5d 10 00 
  10315f:	c7 05 80 9f 2b 00 01 	movl   $0x1,0x2b9f80
  103166:	00 00 00 
  103169:	c7 05 a4 a3 2b 00 05 	movl   $0x5,0x2ba3a4
  103170:	00 00 00 
  103173:	c7 05 44 13 2b 00 18 	movl   $0x101118,0x2b1344
  10317a:	11 10 00 
  10317d:	c7 05 64 1b 2b 00 c0 	movl   $0x1075c0,0x2b1b64
  103184:	75 10 00 
  103187:	c7 05 44 17 2b 00 24 	movl   $0x106324,0x2b1744
  10318e:	63 10 00 
  103191:	c7 05 84 9f 2b 00 01 	movl   $0x1,0x2b9f84
  103198:	00 00 00 
  10319b:	c7 05 b4 a3 2b 00 04 	movl   $0x4,0x2ba3b4
  1031a2:	00 00 00 
  1031a5:	c7 05 54 13 2b 00 18 	movl   $0x101118,0x2b1354
  1031ac:	11 10 00 
  1031af:	c7 05 74 1b 2b 00 c0 	movl   $0x1075c0,0x2b1b74
  1031b6:	75 10 00 
  1031b9:	c7 05 54 17 2b 00 f4 	movl   $0x1055f4,0x2b1754
  1031c0:	55 10 00 
  1031c3:	c7 05 94 9f 2b 00 01 	movl   $0x1,0x2b9f94
  1031ca:	00 00 00 
  1031cd:	c7 05 b8 a3 2b 00 06 	movl   $0x6,0x2ba3b8
  1031d4:	00 00 00 
  1031d7:	c7 05 58 13 2b 00 20 	movl   $0x102220,0x2b1358
  1031de:	22 10 00 
  1031e1:	c7 05 78 1b 2b 00 c4 	movl   $0x1075c4,0x2b1b78
  1031e8:	75 10 00 
  1031eb:	c7 05 58 17 2b 00 f4 	movl   $0x1055f4,0x2b1758
  1031f2:	55 10 00 
  1031f5:	c7 05 98 9f 2b 00 01 	movl   $0x1,0x2b9f98
  1031fc:	00 00 00 
  1031ff:	c7 05 c0 a3 2b 00 02 	movl   $0x2,0x2ba3c0
  103206:	00 00 00 
  103209:	c7 05 60 13 2b 00 68 	movl   $0x101568,0x2b1360
  103210:	15 10 00 
  103213:	c7 05 80 1b 2b 00 d0 	movl   $0x1075d0,0x2b1b80
  10321a:	75 10 00 
  10321d:	c7 05 60 17 2b 00 c0 	movl   $0x1054c0,0x2b1760
  103224:	54 10 00 
  103227:	c7 05 a0 9f 2b 00 01 	movl   $0x1,0x2b9fa0
  10322e:	00 00 00 
  103231:	c7 05 c4 a3 2b 00 04 	movl   $0x4,0x2ba3c4
  103238:	00 00 00 
  10323b:	c7 05 64 13 2b 00 18 	movl   $0x101118,0x2b1364
  103242:	11 10 00 
  103245:	c7 05 84 1b 2b 00 c0 	movl   $0x1075c0,0x2b1b84
  10324c:	75 10 00 
  10324f:	c7 05 64 17 2b 00 20 	movl   $0x105b20,0x2b1764
  103256:	5b 10 00 
  103259:	c7 05 a4 9f 2b 00 01 	movl   $0x1,0x2b9fa4
  103260:	00 00 00 
  103263:	c7 05 d4 a3 2b 00 04 	movl   $0x4,0x2ba3d4
  10326a:	00 00 00 
  10326d:	c7 05 74 13 2b 00 18 	movl   $0x101118,0x2b1374
  103274:	11 10 00 
  103277:	c7 05 94 1b 2b 00 c0 	movl   $0x1075c0,0x2b1b94
  10327e:	75 10 00 
  103281:	c7 05 74 17 2b 00 0c 	movl   $0x10590c,0x2b1774
  103288:	59 10 00 
  10328b:	c7 05 b4 9f 2b 00 01 	movl   $0x1,0x2b9fb4
  103292:	00 00 00 
  103295:	c7 05 d8 a3 2b 00 07 	movl   $0x7,0x2ba3d8
  10329c:	00 00 00 
  10329f:	c7 05 78 13 2b 00 20 	movl   $0x102220,0x2b1378
  1032a6:	22 10 00 
  1032a9:	c7 05 98 1b 2b 00 c4 	movl   $0x1075c4,0x2b1b98
  1032b0:	75 10 00 
  1032b3:	c7 05 78 17 2b 00 0c 	movl   $0x10590c,0x2b1778
  1032ba:	59 10 00 
  1032bd:	c7 05 b8 9f 2b 00 01 	movl   $0x1,0x2b9fb8
  1032c4:	00 00 00 
  1032c7:	c7 05 e4 a3 2b 00 06 	movl   $0x6,0x2ba3e4
  1032ce:	00 00 00 
  1032d1:	c7 05 84 13 2b 00 30 	movl   $0x101730,0x2b1384
  1032d8:	17 10 00 
  1032db:	c7 05 a4 1b 2b 00 d4 	movl   $0x1075d4,0x2b1ba4
  1032e2:	75 10 00 
  1032e5:	c7 05 84 17 2b 00 bc 	movl   $0x1061bc,0x2b1784
  1032ec:	61 10 00 
  1032ef:	c7 05 c4 9f 2b 00 01 	movl   $0x1,0x2b9fc4
  1032f6:	00 00 00 
  1032f9:	c7 05 f0 a3 2b 00 03 	movl   $0x3,0x2ba3f0
  103300:	00 00 00 
  103303:	c7 05 90 13 2b 00 78 	movl   $0x101678,0x2b1390
  10330a:	16 10 00 
  10330d:	c7 05 b0 1b 2b 00 d8 	movl   $0x1075d8,0x2b1bb0
  103314:	75 10 00 
  103317:	c7 05 90 17 2b 00 58 	movl   $0x105558,0x2b1790
  10331e:	55 10 00 
  103321:	c7 05 d0 9f 2b 00 01 	movl   $0x1,0x2b9fd0
  103328:	00 00 00 
  10332b:	c7 05 f4 a3 2b 00 03 	movl   $0x3,0x2ba3f4
  103332:	00 00 00 
  103335:	c7 05 94 13 2b 00 30 	movl   $0x101730,0x2b1394
  10333c:	17 10 00 
  10333f:	c7 05 b4 1b 2b 00 d4 	movl   $0x1075d4,0x2b1bb4
  103346:	75 10 00 
  103349:	c7 05 94 17 2b 00 58 	movl   $0x105558,0x2b1794
  103350:	55 10 00 
  103353:	c7 05 d4 9f 2b 00 01 	movl   $0x1,0x2b9fd4
  10335a:	00 00 00 
  10335d:	c7 05 f8 a3 2b 00 03 	movl   $0x3,0x2ba3f8
  103364:	00 00 00 
  103367:	c7 05 98 13 2b 00 e8 	movl   $0x1017e8,0x2b1398
  10336e:	17 10 00 
  103371:	c7 05 b8 1b 2b 00 dc 	movl   $0x1075dc,0x2b1bb8
  103378:	75 10 00 
  10337b:	c7 05 98 17 2b 00 58 	movl   $0x105558,0x2b1798
  103382:	55 10 00 
  103385:	c7 05 d8 9f 2b 00 01 	movl   $0x1,0x2b9fd8
  10338c:	00 00 00 
  10338f:	c7 05 00 a4 2b 00 02 	movl   $0x2,0x2ba400
  103396:	00 00 00 
  103399:	c7 05 a0 13 2b 00 c0 	movl   $0x1010c0,0x2b13a0
  1033a0:	10 10 00 
  1033a3:	c7 05 c0 1b 2b 00 e0 	movl   $0x1075e0,0x2b1bc0
  1033aa:	75 10 00 
  1033ad:	c7 05 a0 17 2b 00 c0 	movl   $0x1054c0,0x2b17a0
  1033b4:	54 10 00 
  1033b7:	c7 05 e0 9f 2b 00 01 	movl   $0x1,0x2b9fe0
  1033be:	00 00 00 
  1033c1:	c7 05 08 a4 2b 00 02 	movl   $0x2,0x2ba408
  1033c8:	00 00 00 
  1033cb:	c7 05 a8 13 2b 00 a8 	movl   $0x100ea8,0x2b13a8
  1033d2:	0e 10 00 
  1033d5:	c7 05 c8 1b 2b 00 e4 	movl   $0x1075e4,0x2b1bc8
  1033dc:	75 10 00 
  1033df:	c7 05 a8 17 2b 00 c0 	movl   $0x1054c0,0x2b17a8
  1033e6:	54 10 00 
  1033e9:	c7 05 e8 9f 2b 00 01 	movl   $0x1,0x2b9fe8
  1033f0:	00 00 00 
  1033f3:	c7 05 10 a4 2b 00 04 	movl   $0x4,0x2ba410
  1033fa:	00 00 00 
  1033fd:	c7 05 b0 13 2b 00 78 	movl   $0x101678,0x2b13b0
  103404:	16 10 00 
  103407:	c7 05 d0 1b 2b 00 d8 	movl   $0x1075d8,0x2b1bd0
  10340e:	75 10 00 
  103411:	c7 05 b0 17 2b 00 3c 	movl   $0x10573c,0x2b17b0
  103418:	57 10 00 
  10341b:	c7 05 f0 9f 2b 00 01 	movl   $0x1,0x2b9ff0
  103422:	00 00 00 
  103425:	c7 05 14 a4 2b 00 04 	movl   $0x4,0x2ba414
  10342c:	00 00 00 
  10342f:	c7 05 b4 13 2b 00 30 	movl   $0x101730,0x2b13b4
  103436:	17 10 00 
  103439:	c7 05 d4 1b 2b 00 d4 	movl   $0x1075d4,0x2b1bd4
  103440:	75 10 00 
  103443:	c7 05 b4 17 2b 00 3c 	movl   $0x10573c,0x2b17b4
  10344a:	57 10 00 
  10344d:	c7 05 f4 9f 2b 00 01 	movl   $0x1,0x2b9ff4
  103454:	00 00 00 
  103457:	c7 05 18 a4 2b 00 04 	movl   $0x4,0x2ba418
  10345e:	00 00 00 
  103461:	c7 05 b8 13 2b 00 e8 	movl   $0x1017e8,0x2b13b8
  103468:	17 10 00 
  10346b:	c7 05 d8 1b 2b 00 dc 	movl   $0x1075dc,0x2b1bd8
  103472:	75 10 00 
  103475:	c7 05 b8 17 2b 00 3c 	movl   $0x10573c,0x2b17b8
  10347c:	57 10 00 
  10347f:	c7 05 f8 9f 2b 00 01 	movl   $0x1,0x2b9ff8
  103486:	00 00 00 
  103489:	c7 05 20 a4 2b 00 02 	movl   $0x2,0x2ba420
  103490:	00 00 00 
  103493:	c7 05 c0 13 2b 00 e4 	movl   $0x100fe4,0x2b13c0
  10349a:	0f 10 00 
  10349d:	c7 05 e0 1b 2b 00 e8 	movl   $0x1075e8,0x2b1be0
  1034a4:	75 10 00 
  1034a7:	c7 05 c0 17 2b 00 34 	movl   $0x105d34,0x2b17c0
  1034ae:	5d 10 00 
  1034b1:	c7 05 00 a0 2b 00 01 	movl   $0x1,0x2ba000
  1034b8:	00 00 00 
  1034bb:	c7 05 24 a4 2b 00 06 	movl   $0x6,0x2ba424
  1034c2:	00 00 00 
  1034c5:	c7 05 c4 13 2b 00 30 	movl   $0x101730,0x2b13c4
  1034cc:	17 10 00 
  1034cf:	c7 05 e4 1b 2b 00 d4 	movl   $0x1075d4,0x2b1be4
  1034d6:	75 10 00 
  1034d9:	c7 05 c4 17 2b 00 24 	movl   $0x106324,0x2b17c4
  1034e0:	63 10 00 
  1034e3:	c7 05 04 a0 2b 00 01 	movl   $0x1,0x2ba004
  1034ea:	00 00 00 
  1034ed:	c7 05 30 a4 2b 00 04 	movl   $0x4,0x2ba430
  1034f4:	00 00 00 
  1034f7:	c7 05 d0 13 2b 00 78 	movl   $0x101678,0x2b13d0
  1034fe:	16 10 00 
  103501:	c7 05 f0 1b 2b 00 d8 	movl   $0x1075d8,0x2b1bf0
  103508:	75 10 00 
  10350b:	c7 05 d0 17 2b 00 f4 	movl   $0x1055f4,0x2b17d0
  103512:	55 10 00 
  103515:	c7 05 10 a0 2b 00 01 	movl   $0x1,0x2ba010
  10351c:	00 00 00 
  10351f:	c7 05 34 a4 2b 00 04 	movl   $0x4,0x2ba434
  103526:	00 00 00 
  103529:	c7 05 d4 13 2b 00 30 	movl   $0x101730,0x2b13d4
  103530:	17 10 00 
  103533:	c7 05 f4 1b 2b 00 d4 	movl   $0x1075d4,0x2b1bf4
  10353a:	75 10 00 
  10353d:	c7 05 d4 17 2b 00 f4 	movl   $0x1055f4,0x2b17d4
  103544:	55 10 00 
  103547:	c7 05 14 a0 2b 00 01 	movl   $0x1,0x2ba014
  10354e:	00 00 00 
  103551:	c7 05 38 a4 2b 00 04 	movl   $0x4,0x2ba438
  103558:	00 00 00 
  10355b:	c7 05 d8 13 2b 00 e8 	movl   $0x1017e8,0x2b13d8
  103562:	17 10 00 
  103565:	c7 05 f8 1b 2b 00 dc 	movl   $0x1075dc,0x2b1bf8
  10356c:	75 10 00 
  10356f:	c7 05 d8 17 2b 00 98 	movl   $0x105698,0x2b17d8
  103576:	56 10 00 
  103579:	c7 05 18 a0 2b 00 01 	movl   $0x1,0x2ba018
  103580:	00 00 00 
  103583:	c7 05 40 a4 2b 00 02 	movl   $0x2,0x2ba440
  10358a:	00 00 00 
  10358d:	c7 05 e0 13 2b 00 f8 	movl   $0x100ef8,0x2b13e0
  103594:	0e 10 00 
  103597:	c7 05 00 1c 2b 00 ec 	movl   $0x1075ec,0x2b1c00
  10359e:	75 10 00 
  1035a1:	c7 05 e0 17 2b 00 c0 	movl   $0x1054c0,0x2b17e0
  1035a8:	54 10 00 
  1035ab:	c7 05 20 a0 2b 00 01 	movl   $0x1,0x2ba020
  1035b2:	00 00 00 
  1035b5:	c7 05 44 a4 2b 00 05 	movl   $0x5,0x2ba444
  1035bc:	00 00 00 
  1035bf:	c7 05 e4 13 2b 00 30 	movl   $0x101730,0x2b13e4
  1035c6:	17 10 00 
  1035c9:	c7 05 04 1c 2b 00 d4 	movl   $0x1075d4,0x2b1c04
  1035d0:	75 10 00 
  1035d3:	c7 05 e4 17 2b 00 20 	movl   $0x105b20,0x2b17e4
  1035da:	5b 10 00 
  1035dd:	c7 05 24 a0 2b 00 01 	movl   $0x1,0x2ba024
  1035e4:	00 00 00 
  1035e7:	c7 05 48 a4 2b 00 02 	movl   $0x2,0x2ba448
  1035ee:	00 00 00 
  1035f1:	c7 05 e8 13 2b 00 48 	movl   $0x100f48,0x2b13e8
  1035f8:	0f 10 00 
  1035fb:	c7 05 08 1c 2b 00 f0 	movl   $0x1075f0,0x2b1c08
  103602:	75 10 00 
  103605:	c7 05 e8 17 2b 00 c0 	movl   $0x1054c0,0x2b17e8
  10360c:	54 10 00 
  10360f:	c7 05 28 a0 2b 00 01 	movl   $0x1,0x2ba028
  103616:	00 00 00 
  103619:	c7 05 54 a4 2b 00 05 	movl   $0x5,0x2ba454
  103620:	00 00 00 
  103623:	c7 05 f4 13 2b 00 30 	movl   $0x101730,0x2b13f4
  10362a:	17 10 00 
  10362d:	c7 05 14 1c 2b 00 d4 	movl   $0x1075d4,0x2b1c14
  103634:	75 10 00 
  103637:	c7 05 f4 17 2b 00 0c 	movl   $0x10590c,0x2b17f4
  10363e:	59 10 00 
  103641:	c7 05 34 a0 2b 00 01 	movl   $0x1,0x2ba034
  103648:	00 00 00 
  10364b:	c7 05 60 a4 2b 00 02 	movl   $0x2,0x2ba460
  103652:	00 00 00 
  103655:	c7 05 00 14 2b 00 58 	movl   $0x100e58,0x2b1400
  10365c:	0e 10 00 
  10365f:	c7 05 20 1c 2b 00 f4 	movl   $0x1075f4,0x2b1c20
  103666:	75 10 00 
  103669:	c7 05 00 18 2b 00 c8 	movl   $0x1054c8,0x2b1800
  103670:	54 10 00 
  103673:	c7 05 40 a0 2b 00 01 	movl   $0x1,0x2ba040
  10367a:	00 00 00 
  10367d:	c7 05 64 a4 2b 00 06 	movl   $0x6,0x2ba464
  103684:	00 00 00 
  103687:	c7 05 04 14 2b 00 08 	movl   $0x100e08,0x2b1404
  10368e:	0e 10 00 
  103691:	c7 05 24 1c 2b 00 f8 	movl   $0x1075f8,0x2b1c24
  103698:	75 10 00 
  10369b:	c7 05 04 18 2b 00 bc 	movl   $0x1061bc,0x2b1804
  1036a2:	61 10 00 
  1036a5:	c7 05 44 a0 2b 00 01 	movl   $0x1,0x2ba044
  1036ac:	00 00 00 
  1036af:	c7 05 68 a4 2b 00 02 	movl   $0x2,0x2ba468
  1036b6:	00 00 00 
  1036b9:	c7 05 08 14 2b 00 30 	movl   $0x100e30,0x2b1408
  1036c0:	0e 10 00 
  1036c3:	c7 05 28 1c 2b 00 fc 	movl   $0x1075fc,0x2b1c28
  1036ca:	75 10 00 
  1036cd:	c7 05 08 18 2b 00 c8 	movl   $0x1054c8,0x2b1808
  1036d4:	54 10 00 
  1036d7:	c7 05 48 a0 2b 00 01 	movl   $0x1,0x2ba048
  1036de:	00 00 00 
  1036e1:	c7 05 70 a4 2b 00 03 	movl   $0x3,0x2ba470
  1036e8:	00 00 00 
  1036eb:	c7 05 10 14 2b 00 58 	movl   $0x100e58,0x2b1410
  1036f2:	0e 10 00 
  1036f5:	c7 05 30 1c 2b 00 f4 	movl   $0x1075f4,0x2b1c30
  1036fc:	75 10 00 
  1036ff:	c7 05 10 18 2b 00 58 	movl   $0x105558,0x2b1810
  103706:	55 10 00 
  103709:	c7 05 50 a0 2b 00 01 	movl   $0x1,0x2ba050
  103710:	00 00 00 
  103713:	c7 05 74 a4 2b 00 03 	movl   $0x3,0x2ba474
  10371a:	00 00 00 
  10371d:	c7 05 14 14 2b 00 08 	movl   $0x100e08,0x2b1414
  103724:	0e 10 00 
  103727:	c7 05 34 1c 2b 00 f8 	movl   $0x1075f8,0x2b1c34
  10372e:	75 10 00 
  103731:	c7 05 14 18 2b 00 58 	movl   $0x105558,0x2b1814
  103738:	55 10 00 
  10373b:	c7 05 54 a0 2b 00 01 	movl   $0x1,0x2ba054
  103742:	00 00 00 
  103745:	c7 05 78 a4 2b 00 03 	movl   $0x3,0x2ba478
  10374c:	00 00 00 
  10374f:	c7 05 18 14 2b 00 30 	movl   $0x100e30,0x2b1418
  103756:	0e 10 00 
  103759:	c7 05 38 1c 2b 00 fc 	movl   $0x1075fc,0x2b1c38
  103760:	75 10 00 
  103763:	c7 05 18 18 2b 00 58 	movl   $0x105558,0x2b1818
  10376a:	55 10 00 
  10376d:	c7 05 58 a0 2b 00 01 	movl   $0x1,0x2ba058
  103774:	00 00 00 
  103777:	c7 05 80 a4 2b 00 02 	movl   $0x2,0x2ba480
  10377e:	00 00 00 
  103781:	c7 05 20 14 2b 00 d0 	movl   $0x100ed0,0x2b1420
  103788:	0e 10 00 
  10378b:	c7 05 40 1c 2b 00 00 	movl   $0x107600,0x2b1c40
  103792:	76 10 00 
  103795:	c7 05 20 18 2b 00 c0 	movl   $0x1054c0,0x2b1820
  10379c:	54 10 00 
  10379f:	c7 05 60 a0 2b 00 01 	movl   $0x1,0x2ba060
  1037a6:	00 00 00 
  1037a9:	c7 05 84 a4 2b 00 02 	movl   $0x2,0x2ba484
  1037b0:	00 00 00 
  1037b3:	c7 05 24 14 2b 00 08 	movl   $0x100e08,0x2b1424
  1037ba:	0e 10 00 
  1037bd:	c7 05 44 1c 2b 00 f8 	movl   $0x1075f8,0x2b1c44
  1037c4:	75 10 00 
  1037c7:	c7 05 24 18 2b 00 c8 	movl   $0x1054c8,0x2b1824
  1037ce:	54 10 00 
  1037d1:	c7 05 64 a0 2b 00 01 	movl   $0x1,0x2ba064
  1037d8:	00 00 00 
  1037db:	c7 05 88 a4 2b 00 02 	movl   $0x2,0x2ba488
  1037e2:	00 00 00 
  1037e5:	c7 05 28 14 2b 00 80 	movl   $0x100e80,0x2b1428
  1037ec:	0e 10 00 
  1037ef:	c7 05 48 1c 2b 00 04 	movl   $0x107604,0x2b1c48
  1037f6:	76 10 00 
  1037f9:	c7 05 28 18 2b 00 c0 	movl   $0x1054c0,0x2b1828
  103800:	54 10 00 
  103803:	c7 05 68 a0 2b 00 01 	movl   $0x1,0x2ba068
  10380a:	00 00 00 
  10380d:	c7 05 90 a4 2b 00 04 	movl   $0x4,0x2ba490
  103814:	00 00 00 
  103817:	c7 05 30 14 2b 00 58 	movl   $0x100e58,0x2b1430
  10381e:	0e 10 00 
  103821:	c7 05 50 1c 2b 00 f4 	movl   $0x1075f4,0x2b1c50
  103828:	75 10 00 
  10382b:	c7 05 30 18 2b 00 3c 	movl   $0x10573c,0x2b1830
  103832:	57 10 00 
  103835:	c7 05 70 a0 2b 00 01 	movl   $0x1,0x2ba070
  10383c:	00 00 00 
  10383f:	c7 05 94 a4 2b 00 04 	movl   $0x4,0x2ba494
  103846:	00 00 00 
  103849:	c7 05 34 14 2b 00 08 	movl   $0x100e08,0x2b1434
  103850:	0e 10 00 
  103853:	c7 05 54 1c 2b 00 f8 	movl   $0x1075f8,0x2b1c54
  10385a:	75 10 00 
  10385d:	c7 05 34 18 2b 00 3c 	movl   $0x10573c,0x2b1834
  103864:	57 10 00 
  103867:	c7 05 74 a0 2b 00 01 	movl   $0x1,0x2ba074
  10386e:	00 00 00 
  103871:	c7 05 98 a4 2b 00 04 	movl   $0x4,0x2ba498
  103878:	00 00 00 
  10387b:	c7 05 38 14 2b 00 30 	movl   $0x100e30,0x2b1438
  103882:	0e 10 00 
  103885:	c7 05 58 1c 2b 00 fc 	movl   $0x1075fc,0x2b1c58
  10388c:	75 10 00 
  10388f:	c7 05 38 18 2b 00 3c 	movl   $0x10573c,0x2b1838
  103896:	57 10 00 
  103899:	c7 05 78 a0 2b 00 01 	movl   $0x1,0x2ba078
  1038a0:	00 00 00 
  1038a3:	c7 05 a0 a4 2b 00 02 	movl   $0x2,0x2ba4a0
  1038aa:	00 00 00 
  1038ad:	c7 05 40 14 2b 00 58 	movl   $0x100f58,0x2b1440
  1038b4:	0f 10 00 
  1038b7:	c7 05 60 1c 2b 00 08 	movl   $0x107608,0x2b1c60
  1038be:	76 10 00 
  1038c1:	c7 05 40 18 2b 00 34 	movl   $0x105d34,0x2b1840
  1038c8:	5d 10 00 
  1038cb:	c7 05 80 a0 2b 00 01 	movl   $0x1,0x2ba080
  1038d2:	00 00 00 
  1038d5:	c7 05 a4 a4 2b 00 05 	movl   $0x5,0x2ba4a4
  1038dc:	00 00 00 
  1038df:	c7 05 44 14 2b 00 08 	movl   $0x100e08,0x2b1444
  1038e6:	0e 10 00 
  1038e9:	c7 05 64 1c 2b 00 f8 	movl   $0x1075f8,0x2b1c64
  1038f0:	75 10 00 
  1038f3:	c7 05 44 18 2b 00 24 	movl   $0x106324,0x2b1844
  1038fa:	63 10 00 
  1038fd:	c7 05 84 a0 2b 00 01 	movl   $0x1,0x2ba084
  103904:	00 00 00 
  103907:	c7 05 b0 a4 2b 00 04 	movl   $0x4,0x2ba4b0
  10390e:	00 00 00 
  103911:	c7 05 50 14 2b 00 58 	movl   $0x100e58,0x2b1450
  103918:	0e 10 00 
  10391b:	c7 05 70 1c 2b 00 f4 	movl   $0x1075f4,0x2b1c70
  103922:	75 10 00 
  103925:	c7 05 50 18 2b 00 f4 	movl   $0x1055f4,0x2b1850
  10392c:	55 10 00 
  10392f:	c7 05 90 a0 2b 00 01 	movl   $0x1,0x2ba090
  103936:	00 00 00 
  103939:	c7 05 b4 a4 2b 00 04 	movl   $0x4,0x2ba4b4
  103940:	00 00 00 
  103943:	c7 05 54 14 2b 00 08 	movl   $0x100e08,0x2b1454
  10394a:	0e 10 00 
  10394d:	c7 05 74 1c 2b 00 f8 	movl   $0x1075f8,0x2b1c74
  103954:	75 10 00 
  103957:	c7 05 54 18 2b 00 f4 	movl   $0x1055f4,0x2b1854
  10395e:	55 10 00 
  103961:	c7 05 94 a0 2b 00 01 	movl   $0x1,0x2ba094
  103968:	00 00 00 
  10396b:	c7 05 b8 a4 2b 00 04 	movl   $0x4,0x2ba4b8
  103972:	00 00 00 
  103975:	c7 05 58 14 2b 00 30 	movl   $0x100e30,0x2b1458
  10397c:	0e 10 00 
  10397f:	c7 05 78 1c 2b 00 fc 	movl   $0x1075fc,0x2b1c78
  103986:	75 10 00 
  103989:	c7 05 58 18 2b 00 98 	movl   $0x105698,0x2b1858
  103990:	56 10 00 
  103993:	c7 05 98 a0 2b 00 01 	movl   $0x1,0x2ba098
  10399a:	00 00 00 
  10399d:	c7 05 c0 a4 2b 00 02 	movl   $0x2,0x2ba4c0
  1039a4:	00 00 00 
  1039a7:	c7 05 60 14 2b 00 20 	movl   $0x101520,0x2b1460
  1039ae:	15 10 00 
  1039b1:	c7 05 80 1c 2b 00 0c 	movl   $0x10760c,0x2b1c80
  1039b8:	76 10 00 
  1039bb:	c7 05 60 18 2b 00 c0 	movl   $0x1054c0,0x2b1860
  1039c2:	54 10 00 
  1039c5:	c7 05 a0 a0 2b 00 01 	movl   $0x1,0x2ba0a0
  1039cc:	00 00 00 
  1039cf:	c7 05 c4 a4 2b 00 04 	movl   $0x4,0x2ba4c4
  1039d6:	00 00 00 
  1039d9:	c7 05 64 14 2b 00 08 	movl   $0x100e08,0x2b1464
  1039e0:	0e 10 00 
  1039e3:	c7 05 84 1c 2b 00 f8 	movl   $0x1075f8,0x2b1c84
  1039ea:	75 10 00 
  1039ed:	c7 05 64 18 2b 00 20 	movl   $0x105b20,0x2b1864
  1039f4:	5b 10 00 
  1039f7:	c7 05 a4 a0 2b 00 01 	movl   $0x1,0x2ba0a4
  1039fe:	00 00 00 
  103a01:	c7 05 c8 a4 2b 00 02 	movl   $0x2,0x2ba4c8
  103a08:	00 00 00 
  103a0b:	c7 05 68 14 2b 00 20 	movl   $0x100f20,0x2b1468
  103a12:	0f 10 00 
  103a15:	c7 05 88 1c 2b 00 10 	movl   $0x107610,0x2b1c88
  103a1c:	76 10 00 
  103a1f:	c7 05 68 18 2b 00 c0 	movl   $0x1054c0,0x2b1868
  103a26:	54 10 00 
  103a29:	c7 05 a8 a0 2b 00 01 	movl   $0x1,0x2ba0a8
  103a30:	00 00 00 
  103a33:	c7 05 d0 a4 2b 00 04 	movl   $0x4,0x2ba4d0
  103a3a:	00 00 00 
  103a3d:	c7 05 70 14 2b 00 58 	movl   $0x100e58,0x2b1470
  103a44:	0e 10 00 
  103a47:	c7 05 90 1c 2b 00 f4 	movl   $0x1075f4,0x2b1c90
  103a4e:	75 10 00 
  103a51:	c7 05 70 18 2b 00 0c 	movl   $0x10590c,0x2b1870
  103a58:	59 10 00 
  103a5b:	c7 05 b0 a0 2b 00 01 	movl   $0x1,0x2ba0b0
  103a62:	00 00 00 
  103a65:	c7 05 d4 a4 2b 00 04 	movl   $0x4,0x2ba4d4
  103a6c:	00 00 00 
  103a6f:	c7 05 74 14 2b 00 08 	movl   $0x100e08,0x2b1474
  103a76:	0e 10 00 
  103a79:	c7 05 94 1c 2b 00 f8 	movl   $0x1075f8,0x2b1c94
  103a80:	75 10 00 
  103a83:	c7 05 74 18 2b 00 0c 	movl   $0x10590c,0x2b1874
  103a8a:	59 10 00 
  103a8d:	c7 05 b4 a0 2b 00 01 	movl   $0x1,0x2ba0b4
  103a94:	00 00 00 
  103a97:	c7 05 d8 a4 2b 00 04 	movl   $0x4,0x2ba4d8
  103a9e:	00 00 00 
  103aa1:	c7 05 78 14 2b 00 30 	movl   $0x100e30,0x2b1478
  103aa8:	0e 10 00 
  103aab:	c7 05 98 1c 2b 00 fc 	movl   $0x1075fc,0x2b1c98
  103ab2:	75 10 00 
  103ab5:	c7 05 78 18 2b 00 20 	movl   $0x105b20,0x2b1878
  103abc:	5b 10 00 
  103abf:	c7 05 b8 a0 2b 00 01 	movl   $0x1,0x2ba0b8
  103ac6:	00 00 00 
  103ac9:	c7 05 e0 a4 2b 00 02 	movl   $0x2,0x2ba4e0
  103ad0:	00 00 00 
  103ad3:	c7 05 80 14 2b 00 78 	movl   $0x101478,0x2b1480
  103ada:	14 10 00 
  103add:	c7 05 a0 1c 2b 00 14 	movl   $0x107614,0x2b1ca0
  103ae4:	76 10 00 
  103ae7:	c7 05 80 18 2b 00 c8 	movl   $0x1054c8,0x2b1880
  103aee:	54 10 00 
  103af1:	c7 05 c0 a0 2b 00 01 	movl   $0x1,0x2ba0c0
  103af8:	00 00 00 
  103afb:	c7 05 e4 a4 2b 00 06 	movl   $0x6,0x2ba4e4
  103b02:	00 00 00 
  103b05:	c7 05 84 14 2b 00 b8 	movl   $0x1013b8,0x2b1484
  103b0c:	13 10 00 
  103b0f:	c7 05 a4 1c 2b 00 18 	movl   $0x107618,0x2b1ca4
  103b16:	76 10 00 
  103b19:	c7 05 84 18 2b 00 bc 	movl   $0x1061bc,0x2b1884
  103b20:	61 10 00 
  103b23:	c7 05 c4 a0 2b 00 01 	movl   $0x1,0x2ba0c4
  103b2a:	00 00 00 
  103b2d:	c7 05 f0 a4 2b 00 03 	movl   $0x3,0x2ba4f0
  103b34:	00 00 00 
  103b37:	c7 05 90 14 2b 00 78 	movl   $0x101478,0x2b1490
  103b3e:	14 10 00 
  103b41:	c7 05 b0 1c 2b 00 14 	movl   $0x107614,0x2b1cb0
  103b48:	76 10 00 
  103b4b:	c7 05 90 18 2b 00 58 	movl   $0x105558,0x2b1890
  103b52:	55 10 00 
  103b55:	c7 05 d0 a0 2b 00 01 	movl   $0x1,0x2ba0d0
  103b5c:	00 00 00 
  103b5f:	c7 05 f4 a4 2b 00 03 	movl   $0x3,0x2ba4f4
  103b66:	00 00 00 
  103b69:	c7 05 94 14 2b 00 b8 	movl   $0x1013b8,0x2b1494
  103b70:	13 10 00 
  103b73:	c7 05 b4 1c 2b 00 18 	movl   $0x107618,0x2b1cb4
  103b7a:	76 10 00 
  103b7d:	c7 05 94 18 2b 00 58 	movl   $0x105558,0x2b1894
  103b84:	55 10 00 
  103b87:	c7 05 d4 a0 2b 00 01 	movl   $0x1,0x2ba0d4
  103b8e:	00 00 00 
  103b91:	c7 05 f8 a4 2b 00 05 	movl   $0x5,0x2ba4f8
  103b98:	00 00 00 
  103b9b:	c7 05 98 14 2b 00 1c 	movl   $0x101c1c,0x2b1498
  103ba2:	1c 10 00 
  103ba5:	c7 05 b8 1c 2b 00 1c 	movl   $0x10761c,0x2b1cb8
  103bac:	76 10 00 
  103baf:	c7 05 98 18 2b 00 58 	movl   $0x105558,0x2b1898
  103bb6:	55 10 00 
  103bb9:	c7 05 d8 a0 2b 00 01 	movl   $0x1,0x2ba0d8
  103bc0:	00 00 00 
  103bc3:	c7 05 00 a5 2b 00 02 	movl   $0x2,0x2ba500
  103bca:	00 00 00 
  103bcd:	c7 05 a0 14 2b 00 70 	movl   $0x101070,0x2b14a0
  103bd4:	10 10 00 
  103bd7:	c7 05 c0 1c 2b 00 20 	movl   $0x107620,0x2b1cc0
  103bde:	76 10 00 
  103be1:	c7 05 a0 18 2b 00 c0 	movl   $0x1054c0,0x2b18a0
  103be8:	54 10 00 
  103beb:	c7 05 e0 a0 2b 00 01 	movl   $0x1,0x2ba0e0
  103bf2:	00 00 00 
  103bf5:	c7 05 04 a5 2b 00 02 	movl   $0x2,0x2ba504
  103bfc:	00 00 00 
  103bff:	c7 05 a4 14 2b 00 b8 	movl   $0x1013b8,0x2b14a4
  103c06:	13 10 00 
  103c09:	c7 05 c4 1c 2b 00 18 	movl   $0x107618,0x2b1cc4
  103c10:	76 10 00 
  103c13:	c7 05 a4 18 2b 00 c8 	movl   $0x1054c8,0x2b18a4
  103c1a:	54 10 00 
  103c1d:	c7 05 e4 a0 2b 00 01 	movl   $0x1,0x2ba0e4
  103c24:	00 00 00 
  103c27:	c7 05 08 a5 2b 00 02 	movl   $0x2,0x2ba508
  103c2e:	00 00 00 
  103c31:	c7 05 a8 14 2b 00 98 	movl   $0x101098,0x2b14a8
  103c38:	10 10 00 
  103c3b:	c7 05 c8 1c 2b 00 24 	movl   $0x107624,0x2b1cc8
  103c42:	76 10 00 
  103c45:	c7 05 a8 18 2b 00 c0 	movl   $0x1054c0,0x2b18a8
  103c4c:	54 10 00 
  103c4f:	c7 05 e8 a0 2b 00 01 	movl   $0x1,0x2ba0e8
  103c56:	00 00 00 
  103c59:	c7 05 10 a5 2b 00 04 	movl   $0x4,0x2ba510
  103c60:	00 00 00 
  103c63:	c7 05 b0 14 2b 00 78 	movl   $0x101478,0x2b14b0
  103c6a:	14 10 00 
  103c6d:	c7 05 d0 1c 2b 00 14 	movl   $0x107614,0x2b1cd0
  103c74:	76 10 00 
  103c77:	c7 05 b0 18 2b 00 3c 	movl   $0x10573c,0x2b18b0
  103c7e:	57 10 00 
  103c81:	c7 05 f0 a0 2b 00 01 	movl   $0x1,0x2ba0f0
  103c88:	00 00 00 
  103c8b:	c7 05 14 a5 2b 00 04 	movl   $0x4,0x2ba514
  103c92:	00 00 00 
  103c95:	c7 05 b4 14 2b 00 b8 	movl   $0x1013b8,0x2b14b4
  103c9c:	13 10 00 
  103c9f:	c7 05 d4 1c 2b 00 18 	movl   $0x107618,0x2b1cd4
  103ca6:	76 10 00 
  103ca9:	c7 05 b4 18 2b 00 3c 	movl   $0x10573c,0x2b18b4
  103cb0:	57 10 00 
  103cb3:	c7 05 f4 a0 2b 00 01 	movl   $0x1,0x2ba0f4
  103cba:	00 00 00 
  103cbd:	c7 05 18 a5 2b 00 06 	movl   $0x6,0x2ba518
  103cc4:	00 00 00 
  103cc7:	c7 05 b8 14 2b 00 1c 	movl   $0x101c1c,0x2b14b8
  103cce:	1c 10 00 
  103cd1:	c7 05 d8 1c 2b 00 1c 	movl   $0x10761c,0x2b1cd8
  103cd8:	76 10 00 
  103cdb:	c7 05 b8 18 2b 00 3c 	movl   $0x10573c,0x2b18b8
  103ce2:	57 10 00 
  103ce5:	c7 05 f8 a0 2b 00 01 	movl   $0x1,0x2ba0f8
  103cec:	00 00 00 
  103cef:	c7 05 20 a5 2b 00 02 	movl   $0x2,0x2ba520
  103cf6:	00 00 00 
  103cf9:	c7 05 c0 14 2b 00 c8 	movl   $0x100fc8,0x2b14c0
  103d00:	0f 10 00 
  103d03:	c7 05 e0 1c 2b 00 28 	movl   $0x107628,0x2b1ce0
  103d0a:	76 10 00 
  103d0d:	c7 05 c0 18 2b 00 34 	movl   $0x105d34,0x2b18c0
  103d14:	5d 10 00 
  103d17:	c7 05 00 a1 2b 00 01 	movl   $0x1,0x2ba100
  103d1e:	00 00 00 
  103d21:	c7 05 24 a5 2b 00 05 	movl   $0x5,0x2ba524
  103d28:	00 00 00 
  103d2b:	c7 05 c4 14 2b 00 b8 	movl   $0x1013b8,0x2b14c4
  103d32:	13 10 00 
  103d35:	c7 05 e4 1c 2b 00 18 	movl   $0x107618,0x2b1ce4
  103d3c:	76 10 00 
  103d3f:	c7 05 c4 18 2b 00 24 	movl   $0x106324,0x2b18c4
  103d46:	63 10 00 
  103d49:	c7 05 04 a1 2b 00 01 	movl   $0x1,0x2ba104
  103d50:	00 00 00 
  103d53:	c7 05 34 a5 2b 00 04 	movl   $0x4,0x2ba534
  103d5a:	00 00 00 
  103d5d:	c7 05 d4 14 2b 00 b8 	movl   $0x1013b8,0x2b14d4
  103d64:	13 10 00 
  103d67:	c7 05 f4 1c 2b 00 18 	movl   $0x107618,0x2b1cf4
  103d6e:	76 10 00 
  103d71:	c7 05 d4 18 2b 00 f4 	movl   $0x1055f4,0x2b18d4
  103d78:	55 10 00 
  103d7b:	c7 05 14 a1 2b 00 01 	movl   $0x1,0x2ba114
  103d82:	00 00 00 
  103d85:	c7 05 38 a5 2b 00 06 	movl   $0x6,0x2ba538
  103d8c:	00 00 00 
  103d8f:	c7 05 d8 14 2b 00 1c 	movl   $0x101c1c,0x2b14d8
  103d96:	1c 10 00 
  103d99:	c7 05 f8 1c 2b 00 1c 	movl   $0x10761c,0x2b1cf8
  103da0:	76 10 00 
  103da3:	c7 05 d8 18 2b 00 f4 	movl   $0x1055f4,0x2b18d8
  103daa:	55 10 00 
  103dad:	c7 05 18 a1 2b 00 01 	movl   $0x1,0x2ba118
  103db4:	00 00 00 
  103db7:	c7 05 40 a5 2b 00 02 	movl   $0x2,0x2ba540
  103dbe:	00 00 00 
  103dc1:	c7 05 e0 14 2b 00 f0 	movl   $0x1014f0,0x2b14e0
  103dc8:	14 10 00 
  103dcb:	c7 05 00 1d 2b 00 2c 	movl   $0x10762c,0x2b1d00
  103dd2:	76 10 00 
  103dd5:	c7 05 e0 18 2b 00 c0 	movl   $0x1054c0,0x2b18e0
  103ddc:	54 10 00 
  103ddf:	c7 05 20 a1 2b 00 01 	movl   $0x1,0x2ba120
  103de6:	00 00 00 
  103de9:	c7 05 44 a5 2b 00 04 	movl   $0x4,0x2ba544
  103df0:	00 00 00 
  103df3:	c7 05 e4 14 2b 00 b8 	movl   $0x1013b8,0x2b14e4
  103dfa:	13 10 00 
  103dfd:	c7 05 04 1d 2b 00 18 	movl   $0x107618,0x2b1d04
  103e04:	76 10 00 
  103e07:	c7 05 e4 18 2b 00 20 	movl   $0x105b20,0x2b18e4
  103e0e:	5b 10 00 
  103e11:	c7 05 24 a1 2b 00 01 	movl   $0x1,0x2ba124
  103e18:	00 00 00 
  103e1b:	c7 05 54 a5 2b 00 04 	movl   $0x4,0x2ba554
  103e22:	00 00 00 
  103e25:	c7 05 f4 14 2b 00 b8 	movl   $0x1013b8,0x2b14f4
  103e2c:	13 10 00 
  103e2f:	c7 05 14 1d 2b 00 18 	movl   $0x107618,0x2b1d14
  103e36:	76 10 00 
  103e39:	c7 05 f4 18 2b 00 0c 	movl   $0x10590c,0x2b18f4
  103e40:	59 10 00 
  103e43:	c7 05 34 a1 2b 00 01 	movl   $0x1,0x2ba134
  103e4a:	00 00 00 
  103e4d:	c7 05 58 a5 2b 00 07 	movl   $0x7,0x2ba558
  103e54:	00 00 00 
  103e57:	c7 05 f8 14 2b 00 1c 	movl   $0x101c1c,0x2b14f8
  103e5e:	1c 10 00 
  103e61:	c7 05 18 1d 2b 00 1c 	movl   $0x10761c,0x2b1d18
  103e68:	76 10 00 
  103e6b:	c7 05 f8 18 2b 00 0c 	movl   $0x10590c,0x2b18f8
  103e72:	59 10 00 
  103e75:	c7 05 38 a1 2b 00 01 	movl   $0x1,0x2ba138
  103e7c:	00 00 00 
  103e7f:	c7 05 60 a5 2b 00 02 	movl   $0x2,0x2ba560
  103e86:	00 00 00 
  103e89:	c7 05 00 15 2b 00 18 	movl   $0x101418,0x2b1500
  103e90:	14 10 00 
  103e93:	c7 05 20 1d 2b 00 30 	movl   $0x107630,0x2b1d20
  103e9a:	76 10 00 
  103e9d:	c7 05 00 19 2b 00 c8 	movl   $0x1054c8,0x2b1900
  103ea4:	54 10 00 
  103ea7:	c7 05 40 a1 2b 00 01 	movl   $0x1,0x2ba140
  103eae:	00 00 00 
  103eb1:	c7 05 64 a5 2b 00 06 	movl   $0x6,0x2ba564
  103eb8:	00 00 00 
  103ebb:	c7 05 04 15 2b 00 a0 	movl   $0x1011a0,0x2b1504
  103ec2:	11 10 00 
  103ec5:	c7 05 24 1d 2b 00 34 	movl   $0x107634,0x2b1d24
  103ecc:	76 10 00 
  103ecf:	c7 05 04 19 2b 00 bc 	movl   $0x1061bc,0x2b1904
  103ed6:	61 10 00 
  103ed9:	c7 05 44 a1 2b 00 01 	movl   $0x1,0x2ba144
  103ee0:	00 00 00 
  103ee3:	c7 05 70 a5 2b 00 03 	movl   $0x3,0x2ba570
  103eea:	00 00 00 
  103eed:	c7 05 10 15 2b 00 18 	movl   $0x101418,0x2b1510
  103ef4:	14 10 00 
  103ef7:	c7 05 30 1d 2b 00 30 	movl   $0x107630,0x2b1d30
  103efe:	76 10 00 
  103f01:	c7 05 10 19 2b 00 58 	movl   $0x105558,0x2b1910
  103f08:	55 10 00 
  103f0b:	c7 05 50 a1 2b 00 01 	movl   $0x1,0x2ba150
  103f12:	00 00 00 
  103f15:	c7 05 74 a5 2b 00 03 	movl   $0x3,0x2ba574
  103f1c:	00 00 00 
  103f1f:	c7 05 14 15 2b 00 a0 	movl   $0x1011a0,0x2b1514
  103f26:	11 10 00 
  103f29:	c7 05 34 1d 2b 00 34 	movl   $0x107634,0x2b1d34
  103f30:	76 10 00 
  103f33:	c7 05 14 19 2b 00 58 	movl   $0x105558,0x2b1914
  103f3a:	55 10 00 
  103f3d:	c7 05 54 a1 2b 00 01 	movl   $0x1,0x2ba154
  103f44:	00 00 00 
  103f47:	c7 05 78 a5 2b 00 05 	movl   $0x5,0x2ba578
  103f4e:	00 00 00 
  103f51:	c7 05 18 15 2b 00 e0 	movl   $0x101ce0,0x2b1518
  103f58:	1c 10 00 
  103f5b:	c7 05 38 1d 2b 00 38 	movl   $0x107638,0x2b1d38
  103f62:	76 10 00 
  103f65:	c7 05 18 19 2b 00 58 	movl   $0x105558,0x2b1918
  103f6c:	55 10 00 
  103f6f:	c7 05 58 a1 2b 00 01 	movl   $0x1,0x2ba158
  103f76:	00 00 00 
  103f79:	c7 05 80 a5 2b 00 02 	movl   $0x2,0x2ba580
  103f80:	00 00 00 
  103f83:	c7 05 20 15 2b 00 48 	movl   $0x101048,0x2b1520
  103f8a:	10 10 00 
  103f8d:	c7 05 40 1d 2b 00 3c 	movl   $0x10763c,0x2b1d40
  103f94:	76 10 00 
  103f97:	c7 05 20 19 2b 00 c0 	movl   $0x1054c0,0x2b1920
  103f9e:	54 10 00 
  103fa1:	c7 05 60 a1 2b 00 01 	movl   $0x1,0x2ba160
  103fa8:	00 00 00 
  103fab:	c7 05 84 a5 2b 00 02 	movl   $0x2,0x2ba584
  103fb2:	00 00 00 
  103fb5:	c7 05 24 15 2b 00 a0 	movl   $0x1011a0,0x2b1524
  103fbc:	11 10 00 
  103fbf:	c7 05 44 1d 2b 00 34 	movl   $0x107634,0x2b1d44
  103fc6:	76 10 00 
  103fc9:	c7 05 24 19 2b 00 c8 	movl   $0x1054c8,0x2b1924
  103fd0:	54 10 00 
  103fd3:	c7 05 64 a1 2b 00 01 	movl   $0x1,0x2ba164
  103fda:	00 00 00 
  103fdd:	c7 05 88 a5 2b 00 02 	movl   $0x2,0x2ba588
  103fe4:	00 00 00 
  103fe7:	c7 05 28 15 2b 00 70 	movl   $0x100d70,0x2b1528
  103fee:	0d 10 00 
  103ff1:	c7 05 48 1d 2b 00 40 	movl   $0x107640,0x2b1d48
  103ff8:	76 10 00 
  103ffb:	c7 05 28 19 2b 00 c0 	movl   $0x1054c0,0x2b1928
  104002:	54 10 00 
  104005:	c7 05 68 a1 2b 00 01 	movl   $0x1,0x2ba168
  10400c:	00 00 00 
  10400f:	c7 05 90 a5 2b 00 04 	movl   $0x4,0x2ba590
  104016:	00 00 00 
  104019:	c7 05 30 15 2b 00 18 	movl   $0x101418,0x2b1530
  104020:	14 10 00 
  104023:	c7 05 50 1d 2b 00 30 	movl   $0x107630,0x2b1d50
  10402a:	76 10 00 
  10402d:	c7 05 30 19 2b 00 3c 	movl   $0x10573c,0x2b1930
  104034:	57 10 00 
  104037:	c7 05 70 a1 2b 00 01 	movl   $0x1,0x2ba170
  10403e:	00 00 00 
  104041:	c7 05 94 a5 2b 00 04 	movl   $0x4,0x2ba594
  104048:	00 00 00 
  10404b:	c7 05 34 15 2b 00 a0 	movl   $0x1011a0,0x2b1534
  104052:	11 10 00 
  104055:	c7 05 54 1d 2b 00 34 	movl   $0x107634,0x2b1d54
  10405c:	76 10 00 
  10405f:	c7 05 34 19 2b 00 3c 	movl   $0x10573c,0x2b1934
  104066:	57 10 00 
  104069:	c7 05 74 a1 2b 00 01 	movl   $0x1,0x2ba174
  104070:	00 00 00 
  104073:	c7 05 98 a5 2b 00 06 	movl   $0x6,0x2ba598
  10407a:	00 00 00 
  10407d:	c7 05 38 15 2b 00 e0 	movl   $0x101ce0,0x2b1538
  104084:	1c 10 00 
  104087:	c7 05 58 1d 2b 00 38 	movl   $0x107638,0x2b1d58
  10408e:	76 10 00 
  104091:	c7 05 38 19 2b 00 3c 	movl   $0x10573c,0x2b1938
  104098:	57 10 00 
  10409b:	c7 05 78 a1 2b 00 01 	movl   $0x1,0x2ba178
  1040a2:	00 00 00 
  1040a5:	c7 05 a0 a5 2b 00 02 	movl   $0x2,0x2ba5a0
  1040ac:	00 00 00 
  1040af:	c7 05 40 15 2b 00 74 	movl   $0x100f74,0x2b1540
  1040b6:	0f 10 00 
  1040b9:	c7 05 60 1d 2b 00 44 	movl   $0x107644,0x2b1d60
  1040c0:	76 10 00 
  1040c3:	c7 05 40 19 2b 00 34 	movl   $0x105d34,0x2b1940
  1040ca:	5d 10 00 
  1040cd:	c7 05 80 a1 2b 00 01 	movl   $0x1,0x2ba180
  1040d4:	00 00 00 
  1040d7:	c7 05 a4 a5 2b 00 05 	movl   $0x5,0x2ba5a4
  1040de:	00 00 00 
  1040e1:	c7 05 44 15 2b 00 a0 	movl   $0x1011a0,0x2b1544
  1040e8:	11 10 00 
  1040eb:	c7 05 64 1d 2b 00 34 	movl   $0x107634,0x2b1d64
  1040f2:	76 10 00 
  1040f5:	c7 05 44 19 2b 00 24 	movl   $0x106324,0x2b1944
  1040fc:	63 10 00 
  1040ff:	c7 05 84 a1 2b 00 01 	movl   $0x1,0x2ba184
  104106:	00 00 00 
  104109:	c7 05 b4 a5 2b 00 04 	movl   $0x4,0x2ba5b4
  104110:	00 00 00 
  104113:	c7 05 54 15 2b 00 a0 	movl   $0x1011a0,0x2b1554
  10411a:	11 10 00 
  10411d:	c7 05 74 1d 2b 00 34 	movl   $0x107634,0x2b1d74
  104124:	76 10 00 
  104127:	c7 05 54 19 2b 00 f4 	movl   $0x1055f4,0x2b1954
  10412e:	55 10 00 
  104131:	c7 05 94 a1 2b 00 01 	movl   $0x1,0x2ba194
  104138:	00 00 00 
  10413b:	c7 05 b8 a5 2b 00 06 	movl   $0x6,0x2ba5b8
  104142:	00 00 00 
  104145:	c7 05 58 15 2b 00 e0 	movl   $0x101ce0,0x2b1558
  10414c:	1c 10 00 
  10414f:	c7 05 78 1d 2b 00 38 	movl   $0x107638,0x2b1d78
  104156:	76 10 00 
  104159:	c7 05 58 19 2b 00 f4 	movl   $0x1055f4,0x2b1958
  104160:	55 10 00 
  104163:	c7 05 98 a1 2b 00 01 	movl   $0x1,0x2ba198
  10416a:	00 00 00 
  10416d:	c7 05 c0 a5 2b 00 02 	movl   $0x2,0x2ba5c0
  104174:	00 00 00 
  104177:	c7 05 60 15 2b 00 50 	movl   $0x101550,0x2b1560
  10417e:	15 10 00 
  104181:	c7 05 80 1d 2b 00 48 	movl   $0x107648,0x2b1d80
  104188:	76 10 00 
  10418b:	c7 05 60 19 2b 00 c0 	movl   $0x1054c0,0x2b1960
  104192:	54 10 00 
  104195:	c7 05 a0 a1 2b 00 01 	movl   $0x1,0x2ba1a0
  10419c:	00 00 00 
  10419f:	c7 05 c4 a5 2b 00 04 	movl   $0x4,0x2ba5c4
  1041a6:	00 00 00 
  1041a9:	c7 05 64 15 2b 00 a0 	movl   $0x1011a0,0x2b1564
  1041b0:	11 10 00 
  1041b3:	c7 05 84 1d 2b 00 34 	movl   $0x107634,0x2b1d84
  1041ba:	76 10 00 
  1041bd:	c7 05 64 19 2b 00 20 	movl   $0x105b20,0x2b1964
  1041c4:	5b 10 00 
  1041c7:	c7 05 a4 a1 2b 00 01 	movl   $0x1,0x2ba1a4
  1041ce:	00 00 00 
  1041d1:	c7 05 d4 a5 2b 00 04 	movl   $0x4,0x2ba5d4
  1041d8:	00 00 00 
  1041db:	c7 05 74 15 2b 00 a0 	movl   $0x1011a0,0x2b1574
  1041e2:	11 10 00 
  1041e5:	c7 05 94 1d 2b 00 34 	movl   $0x107634,0x2b1d94
  1041ec:	76 10 00 
  1041ef:	c7 05 74 19 2b 00 0c 	movl   $0x10590c,0x2b1974
  1041f6:	59 10 00 
  1041f9:	c7 05 b4 a1 2b 00 01 	movl   $0x1,0x2ba1b4
  104200:	00 00 00 
  104203:	c7 05 d8 a5 2b 00 07 	movl   $0x7,0x2ba5d8
  10420a:	00 00 00 
  10420d:	c7 05 78 15 2b 00 e0 	movl   $0x101ce0,0x2b1578
  104214:	1c 10 00 
  104217:	c7 05 98 1d 2b 00 38 	movl   $0x107638,0x2b1d98
  10421e:	76 10 00 
  104221:	c7 05 78 19 2b 00 0c 	movl   $0x10590c,0x2b1978
  104228:	59 10 00 
  10422b:	c7 05 b8 a1 2b 00 01 	movl   $0x1,0x2ba1b8
  104232:	00 00 00 
  104235:	c7 05 ec a1 2b 00 08 	movl   $0x8,0x2ba1ec
  10423c:	00 00 00 
  10423f:	c7 05 8c 11 2b 00 e4 	movl   $0x101ee4,0x2b118c
  104246:	1e 10 00 
  104249:	c7 05 ac 19 2b 00 4c 	movl   $0x10764c,0x2b19ac
  104250:	76 10 00 
  104253:	c7 05 8c 15 2b 00 bc 	movl   $0x1061bc,0x2b158c
  10425a:	61 10 00 
  10425d:	c7 05 cc 9d 2b 00 00 	movl   $0x0,0x2b9dcc
  104264:	00 00 00 
  104267:	c7 05 fc a1 2b 00 05 	movl   $0x5,0x2ba1fc
  10426e:	00 00 00 
  104271:	c7 05 9c 11 2b 00 e4 	movl   $0x101ee4,0x2b119c
  104278:	1e 10 00 
  10427b:	c7 05 bc 19 2b 00 4c 	movl   $0x10764c,0x2b19bc
  104282:	76 10 00 
  104285:	c7 05 9c 15 2b 00 58 	movl   $0x105558,0x2b159c
  10428c:	55 10 00 
  10428f:	c7 05 dc 9d 2b 00 00 	movl   $0x0,0x2b9ddc
  104296:	00 00 00 
  104299:	c7 05 1c a2 2b 00 06 	movl   $0x6,0x2ba21c
  1042a0:	00 00 00 
  1042a3:	c7 05 bc 11 2b 00 e4 	movl   $0x101ee4,0x2b11bc
  1042aa:	1e 10 00 
  1042ad:	c7 05 dc 19 2b 00 4c 	movl   $0x10764c,0x2b19dc
  1042b4:	76 10 00 
  1042b7:	c7 05 bc 15 2b 00 3c 	movl   $0x10573c,0x2b15bc
  1042be:	57 10 00 
  1042c1:	c7 05 fc 9d 2b 00 00 	movl   $0x0,0x2b9dfc
  1042c8:	00 00 00 
  1042cb:	c7 05 2c a2 2b 00 08 	movl   $0x8,0x2ba22c
  1042d2:	00 00 00 
  1042d5:	c7 05 cc 11 2b 00 e4 	movl   $0x101ee4,0x2b11cc
  1042dc:	1e 10 00 
  1042df:	c7 05 ec 19 2b 00 4c 	movl   $0x10764c,0x2b19ec
  1042e6:	76 10 00 
  1042e9:	c7 05 cc 15 2b 00 24 	movl   $0x106324,0x2b15cc
  1042f0:	63 10 00 
  1042f3:	c7 05 0c 9e 2b 00 00 	movl   $0x0,0x2b9e0c
  1042fa:	00 00 00 
  1042fd:	c7 05 3c a2 2b 00 06 	movl   $0x6,0x2ba23c
  104304:	00 00 00 
  104307:	c7 05 dc 11 2b 00 e4 	movl   $0x101ee4,0x2b11dc
  10430e:	1e 10 00 
  104311:	c7 05 fc 19 2b 00 4c 	movl   $0x10764c,0x2b19fc
  104318:	76 10 00 
  10431b:	c7 05 dc 15 2b 00 f4 	movl   $0x1055f4,0x2b15dc
  104322:	55 10 00 
  104325:	c7 05 1c 9e 2b 00 00 	movl   $0x0,0x2b9e1c
  10432c:	00 00 00 
  10432f:	c7 05 4c a2 2b 00 07 	movl   $0x7,0x2ba24c
  104336:	00 00 00 
  104339:	c7 05 ec 11 2b 00 e4 	movl   $0x101ee4,0x2b11ec
  104340:	1e 10 00 
  104343:	c7 05 0c 1a 2b 00 4c 	movl   $0x10764c,0x2b1a0c
  10434a:	76 10 00 
  10434d:	c7 05 ec 15 2b 00 20 	movl   $0x105b20,0x2b15ec
  104354:	5b 10 00 
  104357:	c7 05 2c 9e 2b 00 00 	movl   $0x0,0x2b9e2c
  10435e:	00 00 00 
  104361:	c7 05 5c a2 2b 00 07 	movl   $0x7,0x2ba25c
  104368:	00 00 00 
  10436b:	c7 05 fc 11 2b 00 e4 	movl   $0x101ee4,0x2b11fc
  104372:	1e 10 00 
  104375:	c7 05 1c 1a 2b 00 4c 	movl   $0x10764c,0x2b1a1c
  10437c:	76 10 00 
  10437f:	c7 05 fc 15 2b 00 0c 	movl   $0x10590c,0x2b15fc
  104386:	59 10 00 
  104389:	c7 05 3c 9e 2b 00 00 	movl   $0x0,0x2b9e3c
  104390:	00 00 00 
  104393:	c7 05 6c a2 2b 00 08 	movl   $0x8,0x2ba26c
  10439a:	00 00 00 
  10439d:	c7 05 0c 12 2b 00 e8 	movl   $0x1021e8,0x2b120c
  1043a4:	21 10 00 
  1043a7:	c7 05 2c 1a 2b 00 50 	movl   $0x107650,0x2b1a2c
  1043ae:	76 10 00 
  1043b1:	c7 05 0c 16 2b 00 bc 	movl   $0x1061bc,0x2b160c
  1043b8:	61 10 00 
  1043bb:	c7 05 4c 9e 2b 00 00 	movl   $0x0,0x2b9e4c
  1043c2:	00 00 00 
  1043c5:	c7 05 7c a2 2b 00 05 	movl   $0x5,0x2ba27c
  1043cc:	00 00 00 
  1043cf:	c7 05 1c 12 2b 00 e8 	movl   $0x1021e8,0x2b121c
  1043d6:	21 10 00 
  1043d9:	c7 05 3c 1a 2b 00 50 	movl   $0x107650,0x2b1a3c
  1043e0:	76 10 00 
  1043e3:	c7 05 1c 16 2b 00 58 	movl   $0x105558,0x2b161c
  1043ea:	55 10 00 
  1043ed:	c7 05 5c 9e 2b 00 00 	movl   $0x0,0x2b9e5c
  1043f4:	00 00 00 
  1043f7:	c7 05 9c a2 2b 00 06 	movl   $0x6,0x2ba29c
  1043fe:	00 00 00 
  104401:	c7 05 3c 12 2b 00 e8 	movl   $0x1021e8,0x2b123c
  104408:	21 10 00 
  10440b:	c7 05 5c 1a 2b 00 50 	movl   $0x107650,0x2b1a5c
  104412:	76 10 00 
  104415:	c7 05 3c 16 2b 00 3c 	movl   $0x10573c,0x2b163c
  10441c:	57 10 00 
  10441f:	c7 05 7c 9e 2b 00 00 	movl   $0x0,0x2b9e7c
  104426:	00 00 00 
  104429:	c7 05 ac a2 2b 00 08 	movl   $0x8,0x2ba2ac
  104430:	00 00 00 
  104433:	c7 05 4c 12 2b 00 e8 	movl   $0x1021e8,0x2b124c
  10443a:	21 10 00 
  10443d:	c7 05 6c 1a 2b 00 50 	movl   $0x107650,0x2b1a6c
  104444:	76 10 00 
  104447:	c7 05 4c 16 2b 00 24 	movl   $0x106324,0x2b164c
  10444e:	63 10 00 
  104451:	c7 05 8c 9e 2b 00 00 	movl   $0x0,0x2b9e8c
  104458:	00 00 00 
  10445b:	c7 05 bc a2 2b 00 06 	movl   $0x6,0x2ba2bc
  104462:	00 00 00 
  104465:	c7 05 5c 12 2b 00 e8 	movl   $0x1021e8,0x2b125c
  10446c:	21 10 00 
  10446f:	c7 05 7c 1a 2b 00 50 	movl   $0x107650,0x2b1a7c
  104476:	76 10 00 
  104479:	c7 05 5c 16 2b 00 f4 	movl   $0x1055f4,0x2b165c
  104480:	55 10 00 
  104483:	c7 05 9c 9e 2b 00 00 	movl   $0x0,0x2b9e9c
  10448a:	00 00 00 
  10448d:	c7 05 cc a2 2b 00 07 	movl   $0x7,0x2ba2cc
  104494:	00 00 00 
  104497:	c7 05 6c 12 2b 00 e8 	movl   $0x1021e8,0x2b126c
  10449e:	21 10 00 
  1044a1:	c7 05 8c 1a 2b 00 50 	movl   $0x107650,0x2b1a8c
  1044a8:	76 10 00 
  1044ab:	c7 05 6c 16 2b 00 20 	movl   $0x105b20,0x2b166c
  1044b2:	5b 10 00 
  1044b5:	c7 05 ac 9e 2b 00 00 	movl   $0x0,0x2b9eac
  1044bc:	00 00 00 
  1044bf:	c7 05 dc a2 2b 00 07 	movl   $0x7,0x2ba2dc
  1044c6:	00 00 00 
  1044c9:	c7 05 7c 12 2b 00 e8 	movl   $0x1021e8,0x2b127c
  1044d0:	21 10 00 
  1044d3:	c7 05 9c 1a 2b 00 50 	movl   $0x107650,0x2b1a9c
  1044da:	76 10 00 
  1044dd:	c7 05 7c 16 2b 00 0c 	movl   $0x10590c,0x2b167c
  1044e4:	59 10 00 
  1044e7:	c7 05 bc 9e 2b 00 00 	movl   $0x0,0x2b9ebc
  1044ee:	00 00 00 
  1044f1:	c7 05 ec a2 2b 00 08 	movl   $0x8,0x2ba2ec
  1044f8:	00 00 00 
  1044fb:	c7 05 8c 12 2b 00 14 	movl   $0x102014,0x2b128c
  104502:	20 10 00 
  104505:	c7 05 ac 1a 2b 00 54 	movl   $0x107654,0x2b1aac
  10450c:	76 10 00 
  10450f:	c7 05 8c 16 2b 00 bc 	movl   $0x1061bc,0x2b168c
  104516:	61 10 00 
  104519:	c7 05 cc 9e 2b 00 00 	movl   $0x0,0x2b9ecc
  104520:	00 00 00 
  104523:	c7 05 fc a2 2b 00 05 	movl   $0x5,0x2ba2fc
  10452a:	00 00 00 
  10452d:	c7 05 9c 12 2b 00 14 	movl   $0x102014,0x2b129c
  104534:	20 10 00 
  104537:	c7 05 bc 1a 2b 00 54 	movl   $0x107654,0x2b1abc
  10453e:	76 10 00 
  104541:	c7 05 9c 16 2b 00 58 	movl   $0x105558,0x2b169c
  104548:	55 10 00 
  10454b:	c7 05 dc 9e 2b 00 00 	movl   $0x0,0x2b9edc
  104552:	00 00 00 
  104555:	c7 05 1c a3 2b 00 06 	movl   $0x6,0x2ba31c
  10455c:	00 00 00 
  10455f:	c7 05 bc 12 2b 00 14 	movl   $0x102014,0x2b12bc
  104566:	20 10 00 
  104569:	c7 05 dc 1a 2b 00 54 	movl   $0x107654,0x2b1adc
  104570:	76 10 00 
  104573:	c7 05 bc 16 2b 00 3c 	movl   $0x10573c,0x2b16bc
  10457a:	57 10 00 
  10457d:	c7 05 fc 9e 2b 00 00 	movl   $0x0,0x2b9efc
  104584:	00 00 00 
  104587:	c7 05 2c a3 2b 00 08 	movl   $0x8,0x2ba32c
  10458e:	00 00 00 
  104591:	c7 05 cc 12 2b 00 14 	movl   $0x102014,0x2b12cc
  104598:	20 10 00 
  10459b:	c7 05 ec 1a 2b 00 54 	movl   $0x107654,0x2b1aec
  1045a2:	76 10 00 
  1045a5:	c7 05 cc 16 2b 00 24 	movl   $0x106324,0x2b16cc
  1045ac:	63 10 00 
  1045af:	c7 05 0c 9f 2b 00 00 	movl   $0x0,0x2b9f0c
  1045b6:	00 00 00 
  1045b9:	c7 05 3c a3 2b 00 06 	movl   $0x6,0x2ba33c
  1045c0:	00 00 00 
  1045c3:	c7 05 dc 12 2b 00 14 	movl   $0x102014,0x2b12dc
  1045ca:	20 10 00 
  1045cd:	c7 05 fc 1a 2b 00 54 	movl   $0x107654,0x2b1afc
  1045d4:	76 10 00 
  1045d7:	c7 05 dc 16 2b 00 f4 	movl   $0x1055f4,0x2b16dc
  1045de:	55 10 00 
  1045e1:	c7 05 1c 9f 2b 00 00 	movl   $0x0,0x2b9f1c
  1045e8:	00 00 00 
  1045eb:	c7 05 4c a3 2b 00 07 	movl   $0x7,0x2ba34c
  1045f2:	00 00 00 
  1045f5:	c7 05 ec 12 2b 00 14 	movl   $0x102014,0x2b12ec
  1045fc:	20 10 00 
  1045ff:	c7 05 0c 1b 2b 00 54 	movl   $0x107654,0x2b1b0c
  104606:	76 10 00 
  104609:	c7 05 ec 16 2b 00 20 	movl   $0x105b20,0x2b16ec
  104610:	5b 10 00 
  104613:	c7 05 2c 9f 2b 00 00 	movl   $0x0,0x2b9f2c
  10461a:	00 00 00 
  10461d:	c7 05 5c a3 2b 00 07 	movl   $0x7,0x2ba35c
  104624:	00 00 00 
  104627:	c7 05 fc 12 2b 00 14 	movl   $0x102014,0x2b12fc
  10462e:	20 10 00 
  104631:	c7 05 1c 1b 2b 00 54 	movl   $0x107654,0x2b1b1c
  104638:	76 10 00 
  10463b:	c7 05 fc 16 2b 00 0c 	movl   $0x10590c,0x2b16fc
  104642:	59 10 00 
  104645:	c7 05 3c 9f 2b 00 00 	movl   $0x0,0x2b9f3c
  10464c:	00 00 00 
  10464f:	c7 05 6c a3 2b 00 08 	movl   $0x8,0x2ba36c
  104656:	00 00 00 
  104659:	c7 05 0c 13 2b 00 38 	movl   $0x102338,0x2b130c
  104660:	23 10 00 
  104663:	c7 05 2c 1b 2b 00 58 	movl   $0x107658,0x2b1b2c
  10466a:	76 10 00 
  10466d:	c7 05 0c 17 2b 00 bc 	movl   $0x1061bc,0x2b170c
  104674:	61 10 00 
  104677:	c7 05 4c 9f 2b 00 00 	movl   $0x0,0x2b9f4c
  10467e:	00 00 00 
  104681:	c7 05 7c a3 2b 00 05 	movl   $0x5,0x2ba37c
  104688:	00 00 00 
  10468b:	c7 05 1c 13 2b 00 38 	movl   $0x102338,0x2b131c
  104692:	23 10 00 
  104695:	c7 05 3c 1b 2b 00 58 	movl   $0x107658,0x2b1b3c
  10469c:	76 10 00 
  10469f:	c7 05 1c 17 2b 00 58 	movl   $0x105558,0x2b171c
  1046a6:	55 10 00 
  1046a9:	c7 05 5c 9f 2b 00 00 	movl   $0x0,0x2b9f5c
  1046b0:	00 00 00 
  1046b3:	c7 05 9c a3 2b 00 06 	movl   $0x6,0x2ba39c
  1046ba:	00 00 00 
  1046bd:	c7 05 3c 13 2b 00 38 	movl   $0x102338,0x2b133c
  1046c4:	23 10 00 
  1046c7:	c7 05 5c 1b 2b 00 58 	movl   $0x107658,0x2b1b5c
  1046ce:	76 10 00 
  1046d1:	c7 05 3c 17 2b 00 3c 	movl   $0x10573c,0x2b173c
  1046d8:	57 10 00 
  1046db:	c7 05 7c 9f 2b 00 00 	movl   $0x0,0x2b9f7c
  1046e2:	00 00 00 
  1046e5:	c7 05 ac a3 2b 00 08 	movl   $0x8,0x2ba3ac
  1046ec:	00 00 00 
  1046ef:	c7 05 4c 13 2b 00 38 	movl   $0x102338,0x2b134c
  1046f6:	23 10 00 
  1046f9:	c7 05 6c 1b 2b 00 58 	movl   $0x107658,0x2b1b6c
  104700:	76 10 00 
  104703:	c7 05 4c 17 2b 00 24 	movl   $0x106324,0x2b174c
  10470a:	63 10 00 
  10470d:	c7 05 8c 9f 2b 00 00 	movl   $0x0,0x2b9f8c
  104714:	00 00 00 
  104717:	c7 05 bc a3 2b 00 06 	movl   $0x6,0x2ba3bc
  10471e:	00 00 00 
  104721:	c7 05 5c 13 2b 00 38 	movl   $0x102338,0x2b135c
  104728:	23 10 00 
  10472b:	c7 05 7c 1b 2b 00 58 	movl   $0x107658,0x2b1b7c
  104732:	76 10 00 
  104735:	c7 05 5c 17 2b 00 f4 	movl   $0x1055f4,0x2b175c
  10473c:	55 10 00 
  10473f:	c7 05 9c 9f 2b 00 00 	movl   $0x0,0x2b9f9c
  104746:	00 00 00 
  104749:	c7 05 cc a3 2b 00 07 	movl   $0x7,0x2ba3cc
  104750:	00 00 00 
  104753:	c7 05 6c 13 2b 00 38 	movl   $0x102338,0x2b136c
  10475a:	23 10 00 
  10475d:	c7 05 8c 1b 2b 00 58 	movl   $0x107658,0x2b1b8c
  104764:	76 10 00 
  104767:	c7 05 6c 17 2b 00 20 	movl   $0x105b20,0x2b176c
  10476e:	5b 10 00 
  104771:	c7 05 ac 9f 2b 00 00 	movl   $0x0,0x2b9fac
  104778:	00 00 00 
  10477b:	c7 05 dc a3 2b 00 07 	movl   $0x7,0x2ba3dc
  104782:	00 00 00 
  104785:	c7 05 7c 13 2b 00 38 	movl   $0x102338,0x2b137c
  10478c:	23 10 00 
  10478f:	c7 05 9c 1b 2b 00 58 	movl   $0x107658,0x2b1b9c
  104796:	76 10 00 
  104799:	c7 05 7c 17 2b 00 0c 	movl   $0x10590c,0x2b177c
  1047a0:	59 10 00 
  1047a3:	c7 05 bc 9f 2b 00 00 	movl   $0x0,0x2b9fbc
  1047aa:	00 00 00 
  1047ad:	c7 05 ec a3 2b 00 06 	movl   $0x6,0x2ba3ec
  1047b4:	00 00 00 
  1047b7:	c7 05 8c 13 2b 00 a0 	movl   $0x1018a0,0x2b138c
  1047be:	18 10 00 
  1047c1:	c7 05 ac 1b 2b 00 5c 	movl   $0x10765c,0x2b1bac
  1047c8:	76 10 00 
  1047cb:	c7 05 8c 17 2b 00 bc 	movl   $0x1061bc,0x2b178c
  1047d2:	61 10 00 
  1047d5:	c7 05 cc 9f 2b 00 00 	movl   $0x0,0x2b9fcc
  1047dc:	00 00 00 
  1047df:	c7 05 fc a3 2b 00 03 	movl   $0x3,0x2ba3fc
  1047e6:	00 00 00 
  1047e9:	c7 05 9c 13 2b 00 a0 	movl   $0x1018a0,0x2b139c
  1047f0:	18 10 00 
  1047f3:	c7 05 bc 1b 2b 00 5c 	movl   $0x10765c,0x2b1bbc
  1047fa:	76 10 00 
  1047fd:	c7 05 9c 17 2b 00 58 	movl   $0x105558,0x2b179c
  104804:	55 10 00 
  104807:	c7 05 dc 9f 2b 00 00 	movl   $0x0,0x2b9fdc
  10480e:	00 00 00 
  104811:	c7 05 1c a4 2b 00 04 	movl   $0x4,0x2ba41c
  104818:	00 00 00 
  10481b:	c7 05 bc 13 2b 00 a0 	movl   $0x1018a0,0x2b13bc
  104822:	18 10 00 
  104825:	c7 05 dc 1b 2b 00 5c 	movl   $0x10765c,0x2b1bdc
  10482c:	76 10 00 
  10482f:	c7 05 bc 17 2b 00 3c 	movl   $0x10573c,0x2b17bc
  104836:	57 10 00 
  104839:	c7 05 fc 9f 2b 00 00 	movl   $0x0,0x2b9ffc
  104840:	00 00 00 
  104843:	c7 05 2c a4 2b 00 06 	movl   $0x6,0x2ba42c
  10484a:	00 00 00 
  10484d:	c7 05 cc 13 2b 00 a8 	movl   $0x1019a8,0x2b13cc
  104854:	19 10 00 
  104857:	c7 05 ec 1b 2b 00 5c 	movl   $0x10765c,0x2b1bec
  10485e:	76 10 00 
  104861:	c7 05 cc 17 2b 00 24 	movl   $0x106324,0x2b17cc
  104868:	63 10 00 
  10486b:	c7 05 0c a0 2b 00 00 	movl   $0x0,0x2ba00c
  104872:	00 00 00 
  104875:	c7 05 3c a4 2b 00 04 	movl   $0x4,0x2ba43c
  10487c:	00 00 00 
  10487f:	c7 05 dc 13 2b 00 a0 	movl   $0x1018a0,0x2b13dc
  104886:	18 10 00 
  104889:	c7 05 fc 1b 2b 00 5c 	movl   $0x10765c,0x2b1bfc
  104890:	76 10 00 
  104893:	c7 05 dc 17 2b 00 98 	movl   $0x105698,0x2b17dc
  10489a:	56 10 00 
  10489d:	c7 05 1c a0 2b 00 00 	movl   $0x0,0x2ba01c
  1048a4:	00 00 00 
  1048a7:	c7 05 5c a4 2b 00 05 	movl   $0x5,0x2ba45c
  1048ae:	00 00 00 
  1048b1:	c7 05 fc 13 2b 00 a8 	movl   $0x1019a8,0x2b13fc
  1048b8:	19 10 00 
  1048bb:	c7 05 1c 1c 2b 00 5c 	movl   $0x10765c,0x2b1c1c
  1048c2:	76 10 00 
  1048c5:	c7 05 fc 17 2b 00 20 	movl   $0x105b20,0x2b17fc
  1048cc:	5b 10 00 
  1048cf:	c7 05 3c a0 2b 00 00 	movl   $0x0,0x2ba03c
  1048d6:	00 00 00 
  1048d9:	c7 05 6c a4 2b 00 06 	movl   $0x6,0x2ba46c
  1048e0:	00 00 00 
  1048e3:	c7 05 0c 14 2b 00 e8 	movl   $0x1010e8,0x2b140c
  1048ea:	10 10 00 
  1048ed:	c7 05 2c 1c 2b 00 60 	movl   $0x107660,0x2b1c2c
  1048f4:	76 10 00 
  1048f7:	c7 05 0c 18 2b 00 bc 	movl   $0x1061bc,0x2b180c
  1048fe:	61 10 00 
  104901:	c7 05 4c a0 2b 00 00 	movl   $0x0,0x2ba04c
  104908:	00 00 00 
  10490b:	c7 05 7c a4 2b 00 03 	movl   $0x3,0x2ba47c
  104912:	00 00 00 
  104915:	c7 05 1c 14 2b 00 e8 	movl   $0x1010e8,0x2b141c
  10491c:	10 10 00 
  10491f:	c7 05 3c 1c 2b 00 60 	movl   $0x107660,0x2b1c3c
  104926:	76 10 00 
  104929:	c7 05 1c 18 2b 00 58 	movl   $0x105558,0x2b181c
  104930:	55 10 00 
  104933:	c7 05 5c a0 2b 00 00 	movl   $0x0,0x2ba05c
  10493a:	00 00 00 
  10493d:	c7 05 9c a4 2b 00 04 	movl   $0x4,0x2ba49c
  104944:	00 00 00 
  104947:	c7 05 3c 14 2b 00 e8 	movl   $0x1010e8,0x2b143c
  10494e:	10 10 00 
  104951:	c7 05 5c 1c 2b 00 60 	movl   $0x107660,0x2b1c5c
  104958:	76 10 00 
  10495b:	c7 05 3c 18 2b 00 3c 	movl   $0x10573c,0x2b183c
  104962:	57 10 00 
  104965:	c7 05 7c a0 2b 00 00 	movl   $0x0,0x2ba07c
  10496c:	00 00 00 
  10496f:	c7 05 ac a4 2b 00 05 	movl   $0x5,0x2ba4ac
  104976:	00 00 00 
  104979:	c7 05 4c 14 2b 00 e8 	movl   $0x1010e8,0x2b144c
  104980:	10 10 00 
  104983:	c7 05 6c 1c 2b 00 60 	movl   $0x107660,0x2b1c6c
  10498a:	76 10 00 
  10498d:	c7 05 4c 18 2b 00 24 	movl   $0x106324,0x2b184c
  104994:	63 10 00 
  104997:	c7 05 8c a0 2b 00 00 	movl   $0x0,0x2ba08c
  10499e:	00 00 00 
  1049a1:	c7 05 bc a4 2b 00 04 	movl   $0x4,0x2ba4bc
  1049a8:	00 00 00 
  1049ab:	c7 05 5c 14 2b 00 e8 	movl   $0x1010e8,0x2b145c
  1049b2:	10 10 00 
  1049b5:	c7 05 7c 1c 2b 00 60 	movl   $0x107660,0x2b1c7c
  1049bc:	76 10 00 
  1049bf:	c7 05 5c 18 2b 00 98 	movl   $0x105698,0x2b185c
  1049c6:	56 10 00 
  1049c9:	c7 05 9c a0 2b 00 00 	movl   $0x0,0x2ba09c
  1049d0:	00 00 00 
  1049d3:	c7 05 dc a4 2b 00 04 	movl   $0x4,0x2ba4dc
  1049da:	00 00 00 
  1049dd:	c7 05 7c 14 2b 00 e8 	movl   $0x1010e8,0x2b147c
  1049e4:	10 10 00 
  1049e7:	c7 05 9c 1c 2b 00 60 	movl   $0x107660,0x2b1c9c
  1049ee:	76 10 00 
  1049f1:	c7 05 7c 18 2b 00 20 	movl   $0x105b20,0x2b187c
  1049f8:	5b 10 00 
  1049fb:	c7 05 bc a0 2b 00 00 	movl   $0x0,0x2ba0bc
  104a02:	00 00 00 
  104a05:	c7 05 ec a4 2b 00 08 	movl   $0x8,0x2ba4ec
  104a0c:	00 00 00 
  104a0f:	c7 05 8c 14 2b 00 6c 	movl   $0x101a6c,0x2b148c
  104a16:	1a 10 00 
  104a19:	c7 05 ac 1c 2b 00 64 	movl   $0x107664,0x2b1cac
  104a20:	76 10 00 
  104a23:	c7 05 8c 18 2b 00 bc 	movl   $0x1061bc,0x2b188c
  104a2a:	61 10 00 
  104a2d:	c7 05 cc a0 2b 00 00 	movl   $0x0,0x2ba0cc
  104a34:	00 00 00 
  104a37:	c7 05 fc a4 2b 00 05 	movl   $0x5,0x2ba4fc
  104a3e:	00 00 00 
  104a41:	c7 05 9c 14 2b 00 6c 	movl   $0x101a6c,0x2b149c
  104a48:	1a 10 00 
  104a4b:	c7 05 bc 1c 2b 00 64 	movl   $0x107664,0x2b1cbc
  104a52:	76 10 00 
  104a55:	c7 05 9c 18 2b 00 58 	movl   $0x105558,0x2b189c
  104a5c:	55 10 00 
  104a5f:	c7 05 dc a0 2b 00 00 	movl   $0x0,0x2ba0dc
  104a66:	00 00 00 
  104a69:	c7 05 1c a5 2b 00 06 	movl   $0x6,0x2ba51c
  104a70:	00 00 00 
  104a73:	c7 05 bc 14 2b 00 6c 	movl   $0x101a6c,0x2b14bc
  104a7a:	1a 10 00 
  104a7d:	c7 05 dc 1c 2b 00 64 	movl   $0x107664,0x2b1cdc
  104a84:	76 10 00 
  104a87:	c7 05 bc 18 2b 00 3c 	movl   $0x10573c,0x2b18bc
  104a8e:	57 10 00 
  104a91:	c7 05 fc a0 2b 00 00 	movl   $0x0,0x2ba0fc
  104a98:	00 00 00 
  104a9b:	c7 05 2c a5 2b 00 08 	movl   $0x8,0x2ba52c
  104aa2:	00 00 00 
  104aa5:	c7 05 cc 14 2b 00 6c 	movl   $0x101a6c,0x2b14cc
  104aac:	1a 10 00 
  104aaf:	c7 05 ec 1c 2b 00 64 	movl   $0x107664,0x2b1cec
  104ab6:	76 10 00 
  104ab9:	c7 05 cc 18 2b 00 24 	movl   $0x106324,0x2b18cc
  104ac0:	63 10 00 
  104ac3:	c7 05 0c a1 2b 00 00 	movl   $0x0,0x2ba10c
  104aca:	00 00 00 
  104acd:	c7 05 3c a5 2b 00 06 	movl   $0x6,0x2ba53c
  104ad4:	00 00 00 
  104ad7:	c7 05 dc 14 2b 00 6c 	movl   $0x101a6c,0x2b14dc
  104ade:	1a 10 00 
  104ae1:	c7 05 fc 1c 2b 00 64 	movl   $0x107664,0x2b1cfc
  104ae8:	76 10 00 
  104aeb:	c7 05 dc 18 2b 00 f4 	movl   $0x1055f4,0x2b18dc
  104af2:	55 10 00 
  104af5:	c7 05 1c a1 2b 00 00 	movl   $0x0,0x2ba11c
  104afc:	00 00 00 
  104aff:	c7 05 4c a5 2b 00 07 	movl   $0x7,0x2ba54c
  104b06:	00 00 00 
  104b09:	c7 05 ec 14 2b 00 6c 	movl   $0x101a6c,0x2b14ec
  104b10:	1a 10 00 
  104b13:	c7 05 0c 1d 2b 00 64 	movl   $0x107664,0x2b1d0c
  104b1a:	76 10 00 
  104b1d:	c7 05 ec 18 2b 00 20 	movl   $0x105b20,0x2b18ec
  104b24:	5b 10 00 
  104b27:	c7 05 2c a1 2b 00 00 	movl   $0x0,0x2ba12c
  104b2e:	00 00 00 
  104b31:	c7 05 5c a5 2b 00 07 	movl   $0x7,0x2ba55c
  104b38:	00 00 00 
  104b3b:	c7 05 fc 14 2b 00 6c 	movl   $0x101a6c,0x2b14fc
  104b42:	1a 10 00 
  104b45:	c7 05 1c 1d 2b 00 64 	movl   $0x107664,0x2b1d1c
  104b4c:	76 10 00 
  104b4f:	c7 05 fc 18 2b 00 0c 	movl   $0x10590c,0x2b18fc
  104b56:	59 10 00 
  104b59:	c7 05 3c a1 2b 00 00 	movl   $0x0,0x2ba13c
  104b60:	00 00 00 
  104b63:	c7 05 6c a5 2b 00 08 	movl   $0x8,0x2ba56c
  104b6a:	00 00 00 
  104b6d:	c7 05 0c 15 2b 00 44 	movl   $0x101b44,0x2b150c
  104b74:	1b 10 00 
  104b77:	c7 05 2c 1d 2b 00 68 	movl   $0x107668,0x2b1d2c
  104b7e:	76 10 00 
  104b81:	c7 05 0c 19 2b 00 bc 	movl   $0x1061bc,0x2b190c
  104b88:	61 10 00 
  104b8b:	c7 05 4c a1 2b 00 00 	movl   $0x0,0x2ba14c
  104b92:	00 00 00 
  104b95:	c7 05 7c a5 2b 00 05 	movl   $0x5,0x2ba57c
  104b9c:	00 00 00 
  104b9f:	c7 05 1c 15 2b 00 44 	movl   $0x101b44,0x2b151c
  104ba6:	1b 10 00 
  104ba9:	c7 05 3c 1d 2b 00 68 	movl   $0x107668,0x2b1d3c
  104bb0:	76 10 00 
  104bb3:	c7 05 1c 19 2b 00 58 	movl   $0x105558,0x2b191c
  104bba:	55 10 00 
  104bbd:	c7 05 5c a1 2b 00 00 	movl   $0x0,0x2ba15c
  104bc4:	00 00 00 
  104bc7:	c7 05 8c a5 2b 00 02 	movl   $0x2,0x2ba58c
  104bce:	00 00 00 
  104bd1:	c7 05 2c 15 2b 00 a0 	movl   $0x1011a0,0x2b152c
  104bd8:	11 10 00 
  104bdb:	c7 05 4c 1d 2b 00 34 	movl   $0x107634,0x2b1d4c
  104be2:	76 10 00 
  104be5:	c7 05 2c 19 2b 00 c8 	movl   $0x1054c8,0x2b192c
  104bec:	54 10 00 
  104bef:	c7 05 6c a1 2b 00 00 	movl   $0x0,0x2ba16c
  104bf6:	00 00 00 
  104bf9:	c7 05 9c a5 2b 00 06 	movl   $0x6,0x2ba59c
  104c00:	00 00 00 
  104c03:	c7 05 3c 15 2b 00 44 	movl   $0x101b44,0x2b153c
  104c0a:	1b 10 00 
  104c0d:	c7 05 5c 1d 2b 00 68 	movl   $0x107668,0x2b1d5c
  104c14:	76 10 00 
  104c17:	c7 05 3c 19 2b 00 3c 	movl   $0x10573c,0x2b193c
  104c1e:	57 10 00 
  104c21:	c7 05 7c a1 2b 00 00 	movl   $0x0,0x2ba17c
  104c28:	00 00 00 
  104c2b:	c7 05 ac a5 2b 00 08 	movl   $0x8,0x2ba5ac
  104c32:	00 00 00 
  104c35:	c7 05 4c 15 2b 00 44 	movl   $0x101b44,0x2b154c
  104c3c:	1b 10 00 
  104c3f:	c7 05 6c 1d 2b 00 68 	movl   $0x107668,0x2b1d6c
  104c46:	76 10 00 
  104c49:	c7 05 4c 19 2b 00 24 	movl   $0x106324,0x2b194c
  104c50:	63 10 00 
  104c53:	c7 05 8c a1 2b 00 00 	movl   $0x0,0x2ba18c
  104c5a:	00 00 00 
  104c5d:	c7 05 bc a5 2b 00 06 	movl   $0x6,0x2ba5bc
  104c64:	00 00 00 
  104c67:	c7 05 5c 15 2b 00 44 	movl   $0x101b44,0x2b155c
  104c6e:	1b 10 00 
  104c71:	c7 05 7c 1d 2b 00 68 	movl   $0x107668,0x2b1d7c
  104c78:	76 10 00 
  104c7b:	c7 05 5c 19 2b 00 f4 	movl   $0x1055f4,0x2b195c
  104c82:	55 10 00 
  104c85:	c7 05 9c a1 2b 00 00 	movl   $0x0,0x2ba19c
  104c8c:	00 00 00 
  104c8f:	c7 05 cc a5 2b 00 07 	movl   $0x7,0x2ba5cc
  104c96:	00 00 00 
  104c99:	c7 05 6c 15 2b 00 44 	movl   $0x101b44,0x2b156c
  104ca0:	1b 10 00 
  104ca3:	c7 05 8c 1d 2b 00 68 	movl   $0x107668,0x2b1d8c
  104caa:	76 10 00 
  104cad:	c7 05 6c 19 2b 00 20 	movl   $0x105b20,0x2b196c
  104cb4:	5b 10 00 
  104cb7:	c7 05 ac a1 2b 00 00 	movl   $0x0,0x2ba1ac
  104cbe:	00 00 00 
  104cc1:	c7 05 dc a5 2b 00 07 	movl   $0x7,0x2ba5dc
  104cc8:	00 00 00 
  104ccb:	c7 05 7c 15 2b 00 44 	movl   $0x101b44,0x2b157c
  104cd2:	1b 10 00 
  104cd5:	c7 05 9c 1d 2b 00 68 	movl   $0x107668,0x2b1d9c
  104cdc:	76 10 00 
  104cdf:	c7 05 7c 19 2b 00 0c 	movl   $0x10590c,0x2b197c
  104ce6:	59 10 00 
  104ce9:	c7 05 bc a1 2b 00 00 	movl   $0x0,0x2ba1bc
  104cf0:	00 00 00 
  104cf3:	c7 05 f0 a1 2b 00 01 	movl   $0x1,0x2ba1f0
  104cfa:	00 00 00 
  104cfd:	c7 05 90 11 2b 00 80 	movl   $0x101580,0x2b1190
  104d04:	15 10 00 
  104d07:	c7 05 b0 19 2b 00 40 	movl   $0x107640,0x2b19b0
  104d0e:	76 10 00 
  104d11:	c7 05 90 15 2b 00 58 	movl   $0x105558,0x2b1590
  104d18:	55 10 00 
  104d1b:	c7 05 d0 9d 2b 00 00 	movl   $0x0,0x2b9dd0
  104d22:	00 00 00 
  104d25:	c7 05 10 a2 2b 00 01 	movl   $0x1,0x2ba210
  104d2c:	00 00 00 
  104d2f:	c7 05 b0 11 2b 00 80 	movl   $0x101580,0x2b11b0
  104d36:	15 10 00 
  104d39:	c7 05 d0 19 2b 00 40 	movl   $0x107640,0x2b19d0
  104d40:	76 10 00 
  104d43:	c7 05 b0 15 2b 00 3c 	movl   $0x10573c,0x2b15b0
  104d4a:	57 10 00 
  104d4d:	c7 05 f0 9d 2b 00 00 	movl   $0x0,0x2b9df0
  104d54:	00 00 00 
  104d57:	c7 05 30 a2 2b 00 01 	movl   $0x1,0x2ba230
  104d5e:	00 00 00 
  104d61:	c7 05 d0 11 2b 00 80 	movl   $0x101580,0x2b11d0
  104d68:	15 10 00 
  104d6b:	c7 05 f0 19 2b 00 40 	movl   $0x107640,0x2b19f0
  104d72:	76 10 00 
  104d75:	c7 05 d0 15 2b 00 f4 	movl   $0x1055f4,0x2b15d0
  104d7c:	55 10 00 
  104d7f:	c7 05 10 9e 2b 00 00 	movl   $0x0,0x2b9e10
  104d86:	00 00 00 
  104d89:	c7 05 48 a2 2b 00 01 	movl   $0x1,0x2ba248
  104d90:	00 00 00 
  104d93:	c7 05 e8 11 2b 00 80 	movl   $0x101580,0x2b11e8
  104d9a:	15 10 00 
  104d9d:	c7 05 08 1a 2b 00 40 	movl   $0x107640,0x2b1a08
  104da4:	76 10 00 
  104da7:	c7 05 e8 15 2b 00 c0 	movl   $0x1054c0,0x2b15e8
  104dae:	54 10 00 
  104db1:	c7 05 28 9e 2b 00 00 	movl   $0x0,0x2b9e28
  104db8:	00 00 00 
  104dbb:	c7 05 50 a2 2b 00 01 	movl   $0x1,0x2ba250
  104dc2:	00 00 00 
  104dc5:	c7 05 f0 11 2b 00 80 	movl   $0x101580,0x2b11f0
  104dcc:	15 10 00 
  104dcf:	c7 05 10 1a 2b 00 40 	movl   $0x107640,0x2b1a10
  104dd6:	76 10 00 
  104dd9:	c7 05 f0 15 2b 00 0c 	movl   $0x10590c,0x2b15f0
  104de0:	59 10 00 
  104de3:	c7 05 30 9e 2b 00 00 	movl   $0x0,0x2b9e30
  104dea:	00 00 00 
  104ded:	c7 05 b0 a2 2b 00 01 	movl   $0x1,0x2ba2b0
  104df4:	00 00 00 
  104df7:	c7 05 50 12 2b 00 80 	movl   $0x101580,0x2b1250
  104dfe:	15 10 00 
  104e01:	c7 05 70 1a 2b 00 40 	movl   $0x107640,0x2b1a70
  104e08:	76 10 00 
  104e0b:	c7 05 50 16 2b 00 f4 	movl   $0x1055f4,0x2b1650
  104e12:	55 10 00 
  104e15:	c7 05 90 9e 2b 00 00 	movl   $0x0,0x2b9e90
  104e1c:	00 00 00 
  104e1f:	c7 05 c8 a2 2b 00 01 	movl   $0x1,0x2ba2c8
  104e26:	00 00 00 
  104e29:	c7 05 68 12 2b 00 80 	movl   $0x101580,0x2b1268
  104e30:	15 10 00 
  104e33:	c7 05 88 1a 2b 00 40 	movl   $0x107640,0x2b1a88
  104e3a:	76 10 00 
  104e3d:	c7 05 68 16 2b 00 c0 	movl   $0x1054c0,0x2b1668
  104e44:	54 10 00 
  104e47:	c7 05 a8 9e 2b 00 00 	movl   $0x0,0x2b9ea8
  104e4e:	00 00 00 
  104e51:	c7 05 d0 a2 2b 00 01 	movl   $0x1,0x2ba2d0
  104e58:	00 00 00 
  104e5b:	c7 05 70 12 2b 00 80 	movl   $0x101580,0x2b1270
  104e62:	15 10 00 
  104e65:	c7 05 90 1a 2b 00 40 	movl   $0x107640,0x2b1a90
  104e6c:	76 10 00 
  104e6f:	c7 05 70 16 2b 00 0c 	movl   $0x10590c,0x2b1670
  104e76:	59 10 00 
  104e79:	c7 05 b0 9e 2b 00 00 	movl   $0x0,0x2b9eb0
  104e80:	00 00 00 
  104e83:	c7 05 f0 a2 2b 00 01 	movl   $0x1,0x2ba2f0
  104e8a:	00 00 00 
  104e8d:	c7 05 90 12 2b 00 80 	movl   $0x101580,0x2b1290
  104e94:	15 10 00 
  104e97:	c7 05 b0 1a 2b 00 40 	movl   $0x107640,0x2b1ab0
  104e9e:	76 10 00 
  104ea1:	c7 05 90 16 2b 00 58 	movl   $0x105558,0x2b1690
  104ea8:	55 10 00 
  104eab:	c7 05 d0 9e 2b 00 00 	movl   $0x0,0x2b9ed0
  104eb2:	00 00 00 
  104eb5:	c7 05 30 a3 2b 00 01 	movl   $0x1,0x2ba330
  104ebc:	00 00 00 
  104ebf:	c7 05 d0 12 2b 00 80 	movl   $0x101580,0x2b12d0
  104ec6:	15 10 00 
  104ec9:	c7 05 f0 1a 2b 00 40 	movl   $0x107640,0x2b1af0
  104ed0:	76 10 00 
  104ed3:	c7 05 d0 16 2b 00 f4 	movl   $0x1055f4,0x2b16d0
  104eda:	55 10 00 
  104edd:	c7 05 10 9f 2b 00 00 	movl   $0x0,0x2b9f10
  104ee4:	00 00 00 
  104ee7:	c7 05 48 a3 2b 00 01 	movl   $0x1,0x2ba348
  104eee:	00 00 00 
  104ef1:	c7 05 e8 12 2b 00 80 	movl   $0x101580,0x2b12e8
  104ef8:	15 10 00 
  104efb:	c7 05 08 1b 2b 00 40 	movl   $0x107640,0x2b1b08
  104f02:	76 10 00 
  104f05:	c7 05 e8 16 2b 00 c0 	movl   $0x1054c0,0x2b16e8
  104f0c:	54 10 00 
  104f0f:	c7 05 28 9f 2b 00 00 	movl   $0x0,0x2b9f28
  104f16:	00 00 00 
  104f19:	c7 05 50 a3 2b 00 01 	movl   $0x1,0x2ba350
  104f20:	00 00 00 
  104f23:	c7 05 f0 12 2b 00 80 	movl   $0x101580,0x2b12f0
  104f2a:	15 10 00 
  104f2d:	c7 05 10 1b 2b 00 40 	movl   $0x107640,0x2b1b10
  104f34:	76 10 00 
  104f37:	c7 05 f0 16 2b 00 0c 	movl   $0x10590c,0x2b16f0
  104f3e:	59 10 00 
  104f41:	c7 05 30 9f 2b 00 00 	movl   $0x0,0x2b9f30
  104f48:	00 00 00 
  104f4b:	c7 05 70 a3 2b 00 01 	movl   $0x1,0x2ba370
  104f52:	00 00 00 
  104f55:	c7 05 10 13 2b 00 80 	movl   $0x101580,0x2b1310
  104f5c:	15 10 00 
  104f5f:	c7 05 30 1b 2b 00 40 	movl   $0x107640,0x2b1b30
  104f66:	76 10 00 
  104f69:	c7 05 10 17 2b 00 58 	movl   $0x105558,0x2b1710
  104f70:	55 10 00 
  104f73:	c7 05 50 9f 2b 00 00 	movl   $0x0,0x2b9f50
  104f7a:	00 00 00 
  104f7d:	c7 05 b0 a3 2b 00 01 	movl   $0x1,0x2ba3b0
  104f84:	00 00 00 
  104f87:	c7 05 50 13 2b 00 80 	movl   $0x101580,0x2b1350
  104f8e:	15 10 00 
  104f91:	c7 05 70 1b 2b 00 40 	movl   $0x107640,0x2b1b70
  104f98:	76 10 00 
  104f9b:	c7 05 50 17 2b 00 f4 	movl   $0x1055f4,0x2b1750
  104fa2:	55 10 00 
  104fa5:	c7 05 90 9f 2b 00 00 	movl   $0x0,0x2b9f90
  104fac:	00 00 00 
  104faf:	c7 05 c8 a3 2b 00 01 	movl   $0x1,0x2ba3c8
  104fb6:	00 00 00 
  104fb9:	c7 05 68 13 2b 00 80 	movl   $0x101580,0x2b1368
  104fc0:	15 10 00 
  104fc3:	c7 05 88 1b 2b 00 40 	movl   $0x107640,0x2b1b88
  104fca:	76 10 00 
  104fcd:	c7 05 68 17 2b 00 c0 	movl   $0x1054c0,0x2b1768
  104fd4:	54 10 00 
  104fd7:	c7 05 a8 9f 2b 00 00 	movl   $0x0,0x2b9fa8
  104fde:	00 00 00 
  104fe1:	c7 05 d0 a3 2b 00 01 	movl   $0x1,0x2ba3d0
  104fe8:	00 00 00 
  104feb:	c7 05 70 13 2b 00 80 	movl   $0x101580,0x2b1370
  104ff2:	15 10 00 
  104ff5:	c7 05 90 1b 2b 00 40 	movl   $0x107640,0x2b1b90
  104ffc:	76 10 00 
  104fff:	c7 05 70 17 2b 00 0c 	movl   $0x10590c,0x2b1770
  105006:	59 10 00 
  105009:	c7 05 b0 9f 2b 00 00 	movl   $0x0,0x2b9fb0
  105010:	00 00 00 
  105013:	c7 05 e0 a3 2b 00 01 	movl   $0x1,0x2ba3e0
  10501a:	00 00 00 
  10501d:	c7 05 80 13 2b 00 80 	movl   $0x101580,0x2b1380
  105024:	15 10 00 
  105027:	c7 05 a0 1b 2b 00 40 	movl   $0x107640,0x2b1ba0
  10502e:	76 10 00 
  105031:	c7 05 80 17 2b 00 c8 	movl   $0x1054c8,0x2b1780
  105038:	54 10 00 
  10503b:	c7 05 c0 9f 2b 00 00 	movl   $0x0,0x2b9fc0
  105042:	00 00 00 
  105045:	c7 05 30 a5 2b 00 01 	movl   $0x1,0x2ba530
  10504c:	00 00 00 
  10504f:	c7 05 d0 14 2b 00 80 	movl   $0x101580,0x2b14d0
  105056:	15 10 00 
  105059:	c7 05 f0 1c 2b 00 40 	movl   $0x107640,0x2b1cf0
  105060:	76 10 00 
  105063:	c7 05 d0 18 2b 00 f4 	movl   $0x1055f4,0x2b18d0
  10506a:	55 10 00 
  10506d:	c7 05 10 a1 2b 00 00 	movl   $0x0,0x2ba110
  105074:	00 00 00 
  105077:	c7 05 48 a5 2b 00 01 	movl   $0x1,0x2ba548
  10507e:	00 00 00 
  105081:	c7 05 e8 14 2b 00 80 	movl   $0x101580,0x2b14e8
  105088:	15 10 00 
  10508b:	c7 05 08 1d 2b 00 40 	movl   $0x107640,0x2b1d08
  105092:	76 10 00 
  105095:	c7 05 e8 18 2b 00 c0 	movl   $0x1054c0,0x2b18e8
  10509c:	54 10 00 
  10509f:	c7 05 28 a1 2b 00 00 	movl   $0x0,0x2ba128
  1050a6:	00 00 00 
  1050a9:	c7 05 50 a5 2b 00 01 	movl   $0x1,0x2ba550
  1050b0:	00 00 00 
  1050b3:	c7 05 f0 14 2b 00 80 	movl   $0x101580,0x2b14f0
  1050ba:	15 10 00 
  1050bd:	c7 05 10 1d 2b 00 40 	movl   $0x107640,0x2b1d10
  1050c4:	76 10 00 
  1050c7:	c7 05 f0 18 2b 00 0c 	movl   $0x10590c,0x2b18f0
  1050ce:	59 10 00 
  1050d1:	c7 05 30 a1 2b 00 00 	movl   $0x0,0x2ba130
  1050d8:	00 00 00 
  1050db:	c7 05 b0 a5 2b 00 01 	movl   $0x1,0x2ba5b0
  1050e2:	00 00 00 
  1050e5:	c7 05 50 15 2b 00 80 	movl   $0x101580,0x2b1550
  1050ec:	15 10 00 
  1050ef:	c7 05 70 1d 2b 00 40 	movl   $0x107640,0x2b1d70
  1050f6:	76 10 00 
  1050f9:	c7 05 50 19 2b 00 f4 	movl   $0x1055f4,0x2b1950
  105100:	55 10 00 
  105103:	c7 05 90 a1 2b 00 00 	movl   $0x0,0x2ba190
  10510a:	00 00 00 
  10510d:	c7 05 c8 a5 2b 00 01 	movl   $0x1,0x2ba5c8
  105114:	00 00 00 
  105117:	c7 05 68 15 2b 00 80 	movl   $0x101580,0x2b1568
  10511e:	15 10 00 
  105121:	c7 05 88 1d 2b 00 40 	movl   $0x107640,0x2b1d88
  105128:	76 10 00 
  10512b:	c7 05 68 19 2b 00 c0 	movl   $0x1054c0,0x2b1968
  105132:	54 10 00 
  105135:	c7 05 a8 a1 2b 00 00 	movl   $0x0,0x2ba1a8
  10513c:	00 00 00 
  10513f:	c7 05 d0 a5 2b 00 01 	movl   $0x1,0x2ba5d0
  105146:	00 00 00 
  105149:	c7 05 70 15 2b 00 80 	movl   $0x101580,0x2b1570
  105150:	15 10 00 
  105153:	c7 05 90 1d 2b 00 40 	movl   $0x107640,0x2b1d90
  10515a:	76 10 00 
  10515d:	c7 05 70 19 2b 00 0c 	movl   $0x10590c,0x2b1970
  105164:	59 10 00 
  105167:	c7 05 b0 a1 2b 00 00 	movl   $0x0,0x2ba1b0
  10516e:	00 00 00 
  105171:	c6 05 86 19 2b 00 24 	movb   $0x24,0x2b1986
  105178:	c6 05 82 19 2b 00 00 	movb   $0x0,0x2b1982
  10517f:	c6 05 85 19 2b 00 00 	movb   $0x0,0x2b1985
  105186:	c6 05 84 19 2b 00 00 	movb   $0x0,0x2b1984
  10518d:	c6 05 83 19 2b 00 00 	movb   $0x0,0x2b1983
  105194:	5d                   	pop    %ebp
  105195:	c3                   	ret    
  105196:	66 90                	xchg   %ax,%ax

00105198 <cpu_reset>:
  105198:	55                   	push   %ebp
  105199:	89 e5                	mov    %esp,%ebp
  10519b:	53                   	push   %ebx
  10519c:	83 ec 10             	sub    $0x10,%esp
  10519f:	68 fc ff 00 00       	push   $0xfffc
  1051a4:	e8 b7 16 00 00       	call   106860 <mmc_read>
  1051a9:	0f b6 d8             	movzbl %al,%ebx
  1051ac:	c7 04 24 fd ff 00 00 	movl   $0xfffd,(%esp)
  1051b3:	e8 a8 16 00 00       	call   106860 <mmc_read>
  1051b8:	c1 e0 08             	shl    $0x8,%eax
  1051bb:	01 d8                	add    %ebx,%eax
  1051bd:	66 a3 80 19 2b 00    	mov    %ax,0x2b1980
  1051c3:	80 2d 82 19 2b 00 03 	subb   $0x3,0x2b1982
  1051ca:	80 0d 86 19 2b 00 04 	orb    $0x4,0x2b1986
  1051d1:	83 c4 10             	add    $0x10,%esp
  1051d4:	8b 5d fc             	mov    -0x4(%ebp),%ebx
  1051d7:	c9                   	leave  
  1051d8:	c3                   	ret    
  1051d9:	8d 76 00             	lea    0x0(%esi),%esi

001051dc <cpu_interrupt>:
  1051dc:	55                   	push   %ebp
  1051dd:	89 e5                	mov    %esp,%ebp
  1051df:	53                   	push   %ebx
  1051e0:	50                   	push   %eax
  1051e1:	e8 d2 ae ff ff       	call   1000b8 <ppu_generates_nmi>
  1051e6:	85 c0                	test   %eax,%eax
  1051e8:	0f 84 8c 00 00 00    	je     10527a <cpu_interrupt+0x9e>
  1051ee:	80 0d 86 19 2b 00 04 	orb    $0x4,0x2b1986
  1051f5:	83 ec 08             	sub    $0x8,%esp
  1051f8:	6a 05                	push   $0x5
  1051fa:	68 86 19 2b 00       	push   $0x2b1986
  1051ff:	e8 84 01 00 00       	call   105388 <common_unset_bitb>
  105204:	66 8b 0d 80 19 2b 00 	mov    0x2b1980,%cx
  10520b:	0f b6 15 82 19 2b 00 	movzbl 0x2b1982,%edx
  105212:	89 d0                	mov    %edx,%eax
  105214:	8d 9a ff 00 00 00    	lea    0xff(%edx),%ebx
  10521a:	0f b7 db             	movzwl %bx,%ebx
  10521d:	88 8b c0 1d 2b 00    	mov    %cl,0x2b1dc0(%ebx)
  105223:	81 c2 00 01 00 00    	add    $0x100,%edx
  105229:	0f b7 d2             	movzwl %dx,%edx
  10522c:	66 c1 e9 08          	shr    $0x8,%cx
  105230:	88 8a c0 1d 2b 00    	mov    %cl,0x2b1dc0(%edx)
  105236:	8d 50 fd             	lea    -0x3(%eax),%edx
  105239:	88 15 82 19 2b 00    	mov    %dl,0x2b1982
  10523f:	83 e8 02             	sub    $0x2,%eax
  105242:	0f b6 c0             	movzbl %al,%eax
  105245:	8a 0d 86 19 2b 00    	mov    0x2b1986,%cl
  10524b:	88 88 c0 1e 2b 00    	mov    %cl,0x2b1ec0(%eax)
  105251:	c7 04 24 fa ff 00 00 	movl   $0xfffa,(%esp)
  105258:	e8 03 16 00 00       	call   106860 <mmc_read>
  10525d:	0f b6 d8             	movzbl %al,%ebx
  105260:	c7 04 24 fb ff 00 00 	movl   $0xfffb,(%esp)
  105267:	e8 f4 15 00 00       	call   106860 <mmc_read>
  10526c:	c1 e0 08             	shl    $0x8,%eax
  10526f:	01 d8                	add    %ebx,%eax
  105271:	66 a3 80 19 2b 00    	mov    %ax,0x2b1980
  105277:	83 c4 10             	add    $0x10,%esp
  10527a:	8b 5d fc             	mov    -0x4(%ebp),%ebx
  10527d:	c9                   	leave  
  10527e:	c3                   	ret    
  10527f:	90                   	nop

00105280 <cpu_clock>:
  105280:	55                   	push   %ebp
  105281:	89 e5                	mov    %esp,%ebp
  105283:	a1 a0 1d 2b 00       	mov    0x2b1da0,%eax
  105288:	5d                   	pop    %ebp
  105289:	c3                   	ret    
  10528a:	66 90                	xchg   %ax,%ax

0010528c <cpu_run>:
  10528c:	55                   	push   %ebp
  10528d:	89 e5                	mov    %esp,%ebp
  10528f:	53                   	push   %ebx
  105290:	50                   	push   %eax
  105291:	8b 5d 08             	mov    0x8(%ebp),%ebx
  105294:	85 db                	test   %ebx,%ebx
  105296:	7f 7b                	jg     105313 <cpu_run+0x87>
  105298:	e9 cb 00 00 00       	jmp    105368 <cpu_run+0xdc>
  10529d:	8d 76 00             	lea    0x0(%esi),%esi
  1052a0:	0f 82 9e 00 00 00    	jb     105344 <cpu_run+0xb8>
  1052a6:	66 83 fa 02          	cmp    $0x2,%dx
  1052aa:	0f 84 a4 00 00 00    	je     105354 <cpu_run+0xc8>
  1052b0:	66 83 fa 03          	cmp    $0x3,%dx
  1052b4:	0f 84 8a 00 00 00    	je     105344 <cpu_run+0xb8>
  1052ba:	83 ec 0c             	sub    $0xc,%esp
  1052bd:	51                   	push   %ecx
  1052be:	e8 9d 15 00 00       	call   106860 <mmc_read>
  1052c3:	83 c4 10             	add    $0x10,%esp
  1052c6:	a2 c0 a1 2b 00       	mov    %al,0x2ba1c0
  1052cb:	0f b6 c0             	movzbl %al,%eax
  1052ce:	8b 14 85 80 15 2b 00 	mov    0x2b1580(,%eax,4),%edx
  1052d5:	85 d2                	test   %edx,%edx
  1052d7:	74 17                	je     1052f0 <cpu_run+0x64>
  1052d9:	ff d2                	call   *%edx
  1052db:	0f b6 05 c0 a1 2b 00 	movzbl 0x2ba1c0,%eax
  1052e2:	ff 14 85 80 11 2b 00 	call   *0x2b1180(,%eax,4)
  1052e9:	0f b6 05 c0 a1 2b 00 	movzbl 0x2ba1c0,%eax
  1052f0:	8b 15 c4 a1 2b 00    	mov    0x2ba1c4,%edx
  1052f6:	03 14 85 e0 a1 2b 00 	add    0x2ba1e0(,%eax,4),%edx
  1052fd:	29 d3                	sub    %edx,%ebx
  1052ff:	29 15 a0 1d 2b 00    	sub    %edx,0x2b1da0
  105305:	c7 05 c4 a1 2b 00 00 	movl   $0x0,0x2ba1c4
  10530c:	00 00 00 
  10530f:	85 db                	test   %ebx,%ebx
  105311:	7e 55                	jle    105368 <cpu_run+0xdc>
  105313:	0f b7 0d 80 19 2b 00 	movzwl 0x2b1980,%ecx
  10531a:	89 c8                	mov    %ecx,%eax
  10531c:	8d 51 01             	lea    0x1(%ecx),%edx
  10531f:	66 89 15 80 19 2b 00 	mov    %dx,0x2b1980
  105326:	89 ca                	mov    %ecx,%edx
  105328:	66 c1 ea 0d          	shr    $0xd,%dx
  10532c:	66 83 fa 01          	cmp    $0x1,%dx
  105330:	0f 85 6a ff ff ff    	jne    1052a0 <cpu_run+0x14>
  105336:	83 ec 0c             	sub    $0xc,%esp
  105339:	51                   	push   %ecx
  10533a:	e8 cd b5 ff ff       	call   10090c <ppu_io_read>
  10533f:	83 c4 10             	add    $0x10,%esp
  105342:	eb 82                	jmp    1052c6 <cpu_run+0x3a>
  105344:	25 ff 07 00 00       	and    $0x7ff,%eax
  105349:	8a 80 c0 1d 2b 00    	mov    0x2b1dc0(%eax),%al
  10534f:	e9 72 ff ff ff       	jmp    1052c6 <cpu_run+0x3a>
  105354:	83 ec 0c             	sub    $0xc,%esp
  105357:	51                   	push   %ecx
  105358:	e8 87 15 00 00       	call   1068e4 <psg_io_read>
  10535d:	83 c4 10             	add    $0x10,%esp
  105360:	e9 61 ff ff ff       	jmp    1052c6 <cpu_run+0x3a>
  105365:	8d 76 00             	lea    0x0(%esi),%esi
  105368:	8b 5d fc             	mov    -0x4(%ebp),%ebx
  10536b:	c9                   	leave  
  10536c:	c3                   	ret    
  10536d:	66 90                	xchg   %ax,%ax
  10536f:	90                   	nop

00105370 <common_set_bitb>:
  105370:	55                   	push   %ebp
  105371:	89 e5                	mov    %esp,%ebp
  105373:	8b 55 08             	mov    0x8(%ebp),%edx
  105376:	0f b6 4d 0c          	movzbl 0xc(%ebp),%ecx
  10537a:	b8 01 00 00 00       	mov    $0x1,%eax
  10537f:	d3 e0                	shl    %cl,%eax
  105381:	08 02                	or     %al,(%edx)
  105383:	5d                   	pop    %ebp
  105384:	c3                   	ret    
  105385:	8d 76 00             	lea    0x0(%esi),%esi

00105388 <common_unset_bitb>:
  105388:	55                   	push   %ebp
  105389:	89 e5                	mov    %esp,%ebp
  10538b:	8b 55 08             	mov    0x8(%ebp),%edx
  10538e:	0f b6 4d 0c          	movzbl 0xc(%ebp),%ecx
  105392:	b8 fe ff ff ff       	mov    $0xfffffffe,%eax
  105397:	d3 c0                	rol    %cl,%eax
  105399:	20 02                	and    %al,(%edx)
  10539b:	5d                   	pop    %ebp
  10539c:	c3                   	ret    
  10539d:	8d 76 00             	lea    0x0(%esi),%esi

001053a0 <common_toggle_bitb>:
  1053a0:	55                   	push   %ebp
  1053a1:	89 e5                	mov    %esp,%ebp
  1053a3:	8b 55 08             	mov    0x8(%ebp),%edx
  1053a6:	0f b6 4d 0c          	movzbl 0xc(%ebp),%ecx
  1053aa:	b8 01 00 00 00       	mov    $0x1,%eax
  1053af:	d3 e0                	shl    %cl,%eax
  1053b1:	30 02                	xor    %al,(%edx)
  1053b3:	5d                   	pop    %ebp
  1053b4:	c3                   	ret    
  1053b5:	8d 76 00             	lea    0x0(%esi),%esi

001053b8 <common_modify_bitb>:
  1053b8:	55                   	push   %ebp
  1053b9:	89 e5                	mov    %esp,%ebp
  1053bb:	8b 45 08             	mov    0x8(%ebp),%eax
  1053be:	8b 4d 0c             	mov    0xc(%ebp),%ecx
  1053c1:	8b 55 10             	mov    0x10(%ebp),%edx
  1053c4:	85 d2                	test   %edx,%edx
  1053c6:	75 0c                	jne    1053d4 <common_modify_bitb+0x1c>
  1053c8:	ba fe ff ff ff       	mov    $0xfffffffe,%edx
  1053cd:	d3 c2                	rol    %cl,%edx
  1053cf:	20 10                	and    %dl,(%eax)
  1053d1:	5d                   	pop    %ebp
  1053d2:	c3                   	ret    
  1053d3:	90                   	nop
  1053d4:	ba 01 00 00 00       	mov    $0x1,%edx
  1053d9:	d3 e2                	shl    %cl,%edx
  1053db:	08 10                	or     %dl,(%eax)
  1053dd:	5d                   	pop    %ebp
  1053de:	c3                   	ret    
  1053df:	90                   	nop

001053e0 <common_set_bitw>:
  1053e0:	55                   	push   %ebp
  1053e1:	89 e5                	mov    %esp,%ebp
  1053e3:	8b 55 08             	mov    0x8(%ebp),%edx
  1053e6:	0f b6 4d 0c          	movzbl 0xc(%ebp),%ecx
  1053ea:	b8 01 00 00 00       	mov    $0x1,%eax
  1053ef:	d3 e0                	shl    %cl,%eax
  1053f1:	66 09 02             	or     %ax,(%edx)
  1053f4:	5d                   	pop    %ebp
  1053f5:	c3                   	ret    
  1053f6:	66 90                	xchg   %ax,%ax

001053f8 <common_unset_bitw>:
  1053f8:	55                   	push   %ebp
  1053f9:	89 e5                	mov    %esp,%ebp
  1053fb:	8b 55 08             	mov    0x8(%ebp),%edx
  1053fe:	0f b6 4d 0c          	movzbl 0xc(%ebp),%ecx
  105402:	b8 fe ff ff ff       	mov    $0xfffffffe,%eax
  105407:	d3 c0                	rol    %cl,%eax
  105409:	66 21 02             	and    %ax,(%edx)
  10540c:	5d                   	pop    %ebp
  10540d:	c3                   	ret    
  10540e:	66 90                	xchg   %ax,%ax

00105410 <common_toggle_bitw>:
  105410:	55                   	push   %ebp
  105411:	89 e5                	mov    %esp,%ebp
  105413:	8b 55 08             	mov    0x8(%ebp),%edx
  105416:	0f b6 4d 0c          	movzbl 0xc(%ebp),%ecx
  10541a:	b8 01 00 00 00       	mov    $0x1,%eax
  10541f:	d3 e0                	shl    %cl,%eax
  105421:	66 31 02             	xor    %ax,(%edx)
  105424:	5d                   	pop    %ebp
  105425:	c3                   	ret    
  105426:	66 90                	xchg   %ax,%ax

00105428 <common_modify_bitw>:
  105428:	55                   	push   %ebp
  105429:	89 e5                	mov    %esp,%ebp
  10542b:	8b 45 08             	mov    0x8(%ebp),%eax
  10542e:	8b 4d 0c             	mov    0xc(%ebp),%ecx
  105431:	8b 55 10             	mov    0x10(%ebp),%edx
  105434:	85 d2                	test   %edx,%edx
  105436:	75 0c                	jne    105444 <common_modify_bitw+0x1c>
  105438:	ba fe ff ff ff       	mov    $0xfffffffe,%edx
  10543d:	d3 c2                	rol    %cl,%edx
  10543f:	66 21 10             	and    %dx,(%eax)
  105442:	5d                   	pop    %ebp
  105443:	c3                   	ret    
  105444:	ba 01 00 00 00       	mov    $0x1,%edx
  105449:	d3 e2                	shl    %cl,%edx
  10544b:	66 09 10             	or     %dx,(%eax)
  10544e:	5d                   	pop    %ebp
  10544f:	c3                   	ret    

00105450 <common_set_bitd>:
  105450:	55                   	push   %ebp
  105451:	89 e5                	mov    %esp,%ebp
  105453:	8b 55 08             	mov    0x8(%ebp),%edx
  105456:	0f b6 4d 0c          	movzbl 0xc(%ebp),%ecx
  10545a:	b8 01 00 00 00       	mov    $0x1,%eax
  10545f:	d3 e0                	shl    %cl,%eax
  105461:	09 02                	or     %eax,(%edx)
  105463:	5d                   	pop    %ebp
  105464:	c3                   	ret    
  105465:	8d 76 00             	lea    0x0(%esi),%esi

00105468 <common_unset_bitd>:
  105468:	55                   	push   %ebp
  105469:	89 e5                	mov    %esp,%ebp
  10546b:	8b 55 08             	mov    0x8(%ebp),%edx
  10546e:	0f b6 4d 0c          	movzbl 0xc(%ebp),%ecx
  105472:	b8 fe ff ff ff       	mov    $0xfffffffe,%eax
  105477:	d3 c0                	rol    %cl,%eax
  105479:	21 02                	and    %eax,(%edx)
  10547b:	5d                   	pop    %ebp
  10547c:	c3                   	ret    
  10547d:	8d 76 00             	lea    0x0(%esi),%esi

00105480 <common_toggle_bitd>:
  105480:	55                   	push   %ebp
  105481:	89 e5                	mov    %esp,%ebp
  105483:	8b 55 08             	mov    0x8(%ebp),%edx
  105486:	0f b6 4d 0c          	movzbl 0xc(%ebp),%ecx
  10548a:	b8 01 00 00 00       	mov    $0x1,%eax
  10548f:	d3 e0                	shl    %cl,%eax
  105491:	31 02                	xor    %eax,(%edx)
  105493:	5d                   	pop    %ebp
  105494:	c3                   	ret    
  105495:	8d 76 00             	lea    0x0(%esi),%esi

00105498 <common_modify_bitd>:
  105498:	55                   	push   %ebp
  105499:	89 e5                	mov    %esp,%ebp
  10549b:	8b 45 08             	mov    0x8(%ebp),%eax
  10549e:	8b 4d 0c             	mov    0xc(%ebp),%ecx
  1054a1:	8b 55 10             	mov    0x10(%ebp),%edx
  1054a4:	85 d2                	test   %edx,%edx
  1054a6:	75 0c                	jne    1054b4 <common_modify_bitd+0x1c>
  1054a8:	ba fe ff ff ff       	mov    $0xfffffffe,%edx
  1054ad:	d3 c2                	rol    %cl,%edx
  1054af:	21 10                	and    %edx,(%eax)
  1054b1:	5d                   	pop    %ebp
  1054b2:	c3                   	ret    
  1054b3:	90                   	nop
  1054b4:	ba 01 00 00 00       	mov    $0x1,%edx
  1054b9:	d3 e2                	shl    %cl,%edx
  1054bb:	09 10                	or     %edx,(%eax)
  1054bd:	5d                   	pop    %ebp
  1054be:	c3                   	ret    
  1054bf:	90                   	nop

001054c0 <cpu_address_implied>:
  1054c0:	55                   	push   %ebp
  1054c1:	89 e5                	mov    %esp,%ebp
  1054c3:	5d                   	pop    %ebp
  1054c4:	c3                   	ret    
  1054c5:	8d 76 00             	lea    0x0(%esi),%esi

001054c8 <cpu_address_immediate>:
  1054c8:	55                   	push   %ebp
  1054c9:	89 e5                	mov    %esp,%ebp
  1054cb:	83 ec 08             	sub    $0x8,%esp
  1054ce:	0f b7 0d 80 19 2b 00 	movzwl 0x2b1980,%ecx
  1054d5:	89 ca                	mov    %ecx,%edx
  1054d7:	66 c1 ea 0d          	shr    $0xd,%dx
  1054db:	66 83 fa 01          	cmp    $0x1,%dx
  1054df:	74 67                	je     105548 <cpu_address_immediate+0x80>
  1054e1:	89 c8                	mov    %ecx,%eax
  1054e3:	72 4f                	jb     105534 <cpu_address_immediate+0x6c>
  1054e5:	66 83 fa 02          	cmp    $0x2,%dx
  1054e9:	74 29                	je     105514 <cpu_address_immediate+0x4c>
  1054eb:	66 83 fa 03          	cmp    $0x3,%dx
  1054ef:	75 33                	jne    105524 <cpu_address_immediate+0x5c>
  1054f1:	83 ec 0c             	sub    $0xc,%esp
  1054f4:	25 ff 1f 00 00       	and    $0x1fff,%eax
  1054f9:	50                   	push   %eax
  1054fa:	e8 4d ce ff ff       	call   10234c <cpu_ram_read>
  1054ff:	83 c4 10             	add    $0x10,%esp
  105502:	0f b6 c0             	movzbl %al,%eax
  105505:	a3 60 11 2b 00       	mov    %eax,0x2b1160
  10550a:	66 ff 05 80 19 2b 00 	incw   0x2b1980
  105511:	c9                   	leave  
  105512:	c3                   	ret    
  105513:	90                   	nop
  105514:	83 ec 0c             	sub    $0xc,%esp
  105517:	51                   	push   %ecx
  105518:	e8 c7 13 00 00       	call   1068e4 <psg_io_read>
  10551d:	83 c4 10             	add    $0x10,%esp
  105520:	eb e0                	jmp    105502 <cpu_address_immediate+0x3a>
  105522:	66 90                	xchg   %ax,%ax
  105524:	83 ec 0c             	sub    $0xc,%esp
  105527:	51                   	push   %ecx
  105528:	e8 33 13 00 00       	call   106860 <mmc_read>
  10552d:	83 c4 10             	add    $0x10,%esp
  105530:	eb d0                	jmp    105502 <cpu_address_immediate+0x3a>
  105532:	66 90                	xchg   %ax,%ax
  105534:	83 ec 0c             	sub    $0xc,%esp
  105537:	25 ff 07 00 00       	and    $0x7ff,%eax
  10553c:	50                   	push   %eax
  10553d:	e8 0a ce ff ff       	call   10234c <cpu_ram_read>
  105542:	83 c4 10             	add    $0x10,%esp
  105545:	eb bb                	jmp    105502 <cpu_address_immediate+0x3a>
  105547:	90                   	nop
  105548:	83 ec 0c             	sub    $0xc,%esp
  10554b:	51                   	push   %ecx
  10554c:	e8 bb b3 ff ff       	call   10090c <ppu_io_read>
  105551:	83 c4 10             	add    $0x10,%esp
  105554:	eb ac                	jmp    105502 <cpu_address_immediate+0x3a>
  105556:	66 90                	xchg   %ax,%ax

00105558 <cpu_address_zero_page>:
  105558:	55                   	push   %ebp
  105559:	89 e5                	mov    %esp,%ebp
  10555b:	83 ec 08             	sub    $0x8,%esp
  10555e:	0f b7 0d 80 19 2b 00 	movzwl 0x2b1980,%ecx
  105565:	89 ca                	mov    %ecx,%edx
  105567:	66 c1 ea 0d          	shr    $0xd,%dx
  10556b:	66 83 fa 01          	cmp    $0x1,%dx
  10556f:	74 73                	je     1055e4 <cpu_address_zero_page+0x8c>
  105571:	89 c8                	mov    %ecx,%eax
  105573:	72 5b                	jb     1055d0 <cpu_address_zero_page+0x78>
  105575:	66 83 fa 02          	cmp    $0x2,%dx
  105579:	74 35                	je     1055b0 <cpu_address_zero_page+0x58>
  10557b:	66 83 fa 03          	cmp    $0x3,%dx
  10557f:	75 3f                	jne    1055c0 <cpu_address_zero_page+0x68>
  105581:	83 ec 0c             	sub    $0xc,%esp
  105584:	25 ff 1f 00 00       	and    $0x1fff,%eax
  105589:	50                   	push   %eax
  10558a:	e8 bd cd ff ff       	call   10234c <cpu_ram_read>
  10558f:	83 c4 10             	add    $0x10,%esp
  105592:	0f b6 c0             	movzbl %al,%eax
  105595:	a3 64 11 2b 00       	mov    %eax,0x2b1164
  10559a:	0f b6 80 c0 1d 2b 00 	movzbl 0x2b1dc0(%eax),%eax
  1055a1:	a3 60 11 2b 00       	mov    %eax,0x2b1160
  1055a6:	66 ff 05 80 19 2b 00 	incw   0x2b1980
  1055ad:	c9                   	leave  
  1055ae:	c3                   	ret    
  1055af:	90                   	nop
  1055b0:	83 ec 0c             	sub    $0xc,%esp
  1055b3:	51                   	push   %ecx
  1055b4:	e8 2b 13 00 00       	call   1068e4 <psg_io_read>
  1055b9:	83 c4 10             	add    $0x10,%esp
  1055bc:	eb d4                	jmp    105592 <cpu_address_zero_page+0x3a>
  1055be:	66 90                	xchg   %ax,%ax
  1055c0:	83 ec 0c             	sub    $0xc,%esp
  1055c3:	51                   	push   %ecx
  1055c4:	e8 97 12 00 00       	call   106860 <mmc_read>
  1055c9:	83 c4 10             	add    $0x10,%esp
  1055cc:	eb c4                	jmp    105592 <cpu_address_zero_page+0x3a>
  1055ce:	66 90                	xchg   %ax,%ax
  1055d0:	83 ec 0c             	sub    $0xc,%esp
  1055d3:	25 ff 07 00 00       	and    $0x7ff,%eax
  1055d8:	50                   	push   %eax
  1055d9:	e8 6e cd ff ff       	call   10234c <cpu_ram_read>
  1055de:	83 c4 10             	add    $0x10,%esp
  1055e1:	eb af                	jmp    105592 <cpu_address_zero_page+0x3a>
  1055e3:	90                   	nop
  1055e4:	83 ec 0c             	sub    $0xc,%esp
  1055e7:	51                   	push   %ecx
  1055e8:	e8 1f b3 ff ff       	call   10090c <ppu_io_read>
  1055ed:	83 c4 10             	add    $0x10,%esp
  1055f0:	eb a0                	jmp    105592 <cpu_address_zero_page+0x3a>
  1055f2:	66 90                	xchg   %ax,%ax

001055f4 <cpu_address_zero_page_x>:
  1055f4:	55                   	push   %ebp
  1055f5:	89 e5                	mov    %esp,%ebp
  1055f7:	83 ec 08             	sub    $0x8,%esp
  1055fa:	0f b7 0d 80 19 2b 00 	movzwl 0x2b1980,%ecx
  105601:	89 ca                	mov    %ecx,%edx
  105603:	66 c1 ea 0d          	shr    $0xd,%dx
  105607:	66 83 fa 01          	cmp    $0x1,%dx
  10560b:	74 7b                	je     105688 <cpu_address_zero_page_x+0x94>
  10560d:	89 c8                	mov    %ecx,%eax
  10560f:	72 63                	jb     105674 <cpu_address_zero_page_x+0x80>
  105611:	66 83 fa 02          	cmp    $0x2,%dx
  105615:	74 3d                	je     105654 <cpu_address_zero_page_x+0x60>
  105617:	66 83 fa 03          	cmp    $0x3,%dx
  10561b:	75 47                	jne    105664 <cpu_address_zero_page_x+0x70>
  10561d:	83 ec 0c             	sub    $0xc,%esp
  105620:	25 ff 1f 00 00       	and    $0x1fff,%eax
  105625:	50                   	push   %eax
  105626:	e8 21 cd ff ff       	call   10234c <cpu_ram_read>
  10562b:	83 c4 10             	add    $0x10,%esp
  10562e:	02 05 84 19 2b 00    	add    0x2b1984,%al
  105634:	0f b6 c0             	movzbl %al,%eax
  105637:	a3 64 11 2b 00       	mov    %eax,0x2b1164
  10563c:	0f b6 80 c0 1d 2b 00 	movzbl 0x2b1dc0(%eax),%eax
  105643:	a3 60 11 2b 00       	mov    %eax,0x2b1160
  105648:	66 ff 05 80 19 2b 00 	incw   0x2b1980
  10564f:	c9                   	leave  
  105650:	c3                   	ret    
  105651:	8d 76 00             	lea    0x0(%esi),%esi
  105654:	83 ec 0c             	sub    $0xc,%esp
  105657:	51                   	push   %ecx
  105658:	e8 87 12 00 00       	call   1068e4 <psg_io_read>
  10565d:	83 c4 10             	add    $0x10,%esp
  105660:	eb cc                	jmp    10562e <cpu_address_zero_page_x+0x3a>
  105662:	66 90                	xchg   %ax,%ax
  105664:	83 ec 0c             	sub    $0xc,%esp
  105667:	51                   	push   %ecx
  105668:	e8 f3 11 00 00       	call   106860 <mmc_read>
  10566d:	83 c4 10             	add    $0x10,%esp
  105670:	eb bc                	jmp    10562e <cpu_address_zero_page_x+0x3a>
  105672:	66 90                	xchg   %ax,%ax
  105674:	83 ec 0c             	sub    $0xc,%esp
  105677:	25 ff 07 00 00       	and    $0x7ff,%eax
  10567c:	50                   	push   %eax
  10567d:	e8 ca cc ff ff       	call   10234c <cpu_ram_read>
  105682:	83 c4 10             	add    $0x10,%esp
  105685:	eb a7                	jmp    10562e <cpu_address_zero_page_x+0x3a>
  105687:	90                   	nop
  105688:	83 ec 0c             	sub    $0xc,%esp
  10568b:	51                   	push   %ecx
  10568c:	e8 7b b2 ff ff       	call   10090c <ppu_io_read>
  105691:	83 c4 10             	add    $0x10,%esp
  105694:	eb 98                	jmp    10562e <cpu_address_zero_page_x+0x3a>
  105696:	66 90                	xchg   %ax,%ax

00105698 <cpu_address_zero_page_y>:
  105698:	55                   	push   %ebp
  105699:	89 e5                	mov    %esp,%ebp
  10569b:	83 ec 08             	sub    $0x8,%esp
  10569e:	0f b7 0d 80 19 2b 00 	movzwl 0x2b1980,%ecx
  1056a5:	89 ca                	mov    %ecx,%edx
  1056a7:	66 c1 ea 0d          	shr    $0xd,%dx
  1056ab:	66 83 fa 01          	cmp    $0x1,%dx
  1056af:	74 7b                	je     10572c <cpu_address_zero_page_y+0x94>
  1056b1:	89 c8                	mov    %ecx,%eax
  1056b3:	72 63                	jb     105718 <cpu_address_zero_page_y+0x80>
  1056b5:	66 83 fa 02          	cmp    $0x2,%dx
  1056b9:	74 3d                	je     1056f8 <cpu_address_zero_page_y+0x60>
  1056bb:	66 83 fa 03          	cmp    $0x3,%dx
  1056bf:	75 47                	jne    105708 <cpu_address_zero_page_y+0x70>
  1056c1:	83 ec 0c             	sub    $0xc,%esp
  1056c4:	25 ff 1f 00 00       	and    $0x1fff,%eax
  1056c9:	50                   	push   %eax
  1056ca:	e8 7d cc ff ff       	call   10234c <cpu_ram_read>
  1056cf:	83 c4 10             	add    $0x10,%esp
  1056d2:	02 05 85 19 2b 00    	add    0x2b1985,%al
  1056d8:	0f b6 c0             	movzbl %al,%eax
  1056db:	a3 64 11 2b 00       	mov    %eax,0x2b1164
  1056e0:	0f b6 80 c0 1d 2b 00 	movzbl 0x2b1dc0(%eax),%eax
  1056e7:	a3 60 11 2b 00       	mov    %eax,0x2b1160
  1056ec:	66 ff 05 80 19 2b 00 	incw   0x2b1980
  1056f3:	c9                   	leave  
  1056f4:	c3                   	ret    
  1056f5:	8d 76 00             	lea    0x0(%esi),%esi
  1056f8:	83 ec 0c             	sub    $0xc,%esp
  1056fb:	51                   	push   %ecx
  1056fc:	e8 e3 11 00 00       	call   1068e4 <psg_io_read>
  105701:	83 c4 10             	add    $0x10,%esp
  105704:	eb cc                	jmp    1056d2 <cpu_address_zero_page_y+0x3a>
  105706:	66 90                	xchg   %ax,%ax
  105708:	83 ec 0c             	sub    $0xc,%esp
  10570b:	51                   	push   %ecx
  10570c:	e8 4f 11 00 00       	call   106860 <mmc_read>
  105711:	83 c4 10             	add    $0x10,%esp
  105714:	eb bc                	jmp    1056d2 <cpu_address_zero_page_y+0x3a>
  105716:	66 90                	xchg   %ax,%ax
  105718:	83 ec 0c             	sub    $0xc,%esp
  10571b:	25 ff 07 00 00       	and    $0x7ff,%eax
  105720:	50                   	push   %eax
  105721:	e8 26 cc ff ff       	call   10234c <cpu_ram_read>
  105726:	83 c4 10             	add    $0x10,%esp
  105729:	eb a7                	jmp    1056d2 <cpu_address_zero_page_y+0x3a>
  10572b:	90                   	nop
  10572c:	83 ec 0c             	sub    $0xc,%esp
  10572f:	51                   	push   %ecx
  105730:	e8 d7 b1 ff ff       	call   10090c <ppu_io_read>
  105735:	83 c4 10             	add    $0x10,%esp
  105738:	eb 98                	jmp    1056d2 <cpu_address_zero_page_y+0x3a>
  10573a:	66 90                	xchg   %ax,%ax

0010573c <cpu_address_absolute>:
  10573c:	55                   	push   %ebp
  10573d:	89 e5                	mov    %esp,%ebp
  10573f:	56                   	push   %esi
  105740:	53                   	push   %ebx
  105741:	0f b7 15 80 19 2b 00 	movzwl 0x2b1980,%edx
  105748:	89 d3                	mov    %edx,%ebx
  10574a:	89 d0                	mov    %edx,%eax
  10574c:	66 c1 e8 0d          	shr    $0xd,%ax
  105750:	66 83 f8 01          	cmp    $0x1,%ax
  105754:	0f 84 9e 01 00 00    	je     1058f8 <cpu_address_absolute+0x1bc>
  10575a:	0f 82 80 01 00 00    	jb     1058e0 <cpu_address_absolute+0x1a4>
  105760:	66 83 f8 02          	cmp    $0x2,%ax
  105764:	0f 84 b6 00 00 00    	je     105820 <cpu_address_absolute+0xe4>
  10576a:	66 83 f8 03          	cmp    $0x3,%ax
  10576e:	0f 85 58 01 00 00    	jne    1058cc <cpu_address_absolute+0x190>
  105774:	83 ec 0c             	sub    $0xc,%esp
  105777:	89 d0                	mov    %edx,%eax
  105779:	25 ff 1f 00 00       	and    $0x1fff,%eax
  10577e:	50                   	push   %eax
  10577f:	e8 c8 cb ff ff       	call   10234c <cpu_ram_read>
  105784:	83 c4 10             	add    $0x10,%esp
  105787:	0f b6 f0             	movzbl %al,%esi
  10578a:	43                   	inc    %ebx
  10578b:	0f b7 d3             	movzwl %bx,%edx
  10578e:	89 d8                	mov    %ebx,%eax
  105790:	66 c1 e8 0d          	shr    $0xd,%ax
  105794:	66 83 f8 01          	cmp    $0x1,%ax
  105798:	0f 84 1a 01 00 00    	je     1058b8 <cpu_address_absolute+0x17c>
  10579e:	0f 82 fc 00 00 00    	jb     1058a0 <cpu_address_absolute+0x164>
  1057a4:	66 83 f8 02          	cmp    $0x2,%ax
  1057a8:	0f 84 de 00 00 00    	je     10588c <cpu_address_absolute+0x150>
  1057ae:	66 83 f8 03          	cmp    $0x3,%ax
  1057b2:	0f 85 c0 00 00 00    	jne    105878 <cpu_address_absolute+0x13c>
  1057b8:	83 ec 0c             	sub    $0xc,%esp
  1057bb:	81 e3 ff 1f 00 00    	and    $0x1fff,%ebx
  1057c1:	53                   	push   %ebx
  1057c2:	e8 85 cb ff ff       	call   10234c <cpu_ram_read>
  1057c7:	83 c4 10             	add    $0x10,%esp
  1057ca:	c1 e0 08             	shl    $0x8,%eax
  1057cd:	01 c6                	add    %eax,%esi
  1057cf:	0f b7 d6             	movzwl %si,%edx
  1057d2:	89 15 64 11 2b 00    	mov    %edx,0x2b1164
  1057d8:	89 f0                	mov    %esi,%eax
  1057da:	66 c1 e8 0d          	shr    $0xd,%ax
  1057de:	66 83 f8 01          	cmp    $0x1,%ax
  1057e2:	0f 84 80 00 00 00    	je     105868 <cpu_address_absolute+0x12c>
  1057e8:	72 6a                	jb     105854 <cpu_address_absolute+0x118>
  1057ea:	66 83 f8 02          	cmp    $0x2,%ax
  1057ee:	74 54                	je     105844 <cpu_address_absolute+0x108>
  1057f0:	66 83 f8 03          	cmp    $0x3,%ax
  1057f4:	75 3e                	jne    105834 <cpu_address_absolute+0xf8>
  1057f6:	83 ec 0c             	sub    $0xc,%esp
  1057f9:	81 e6 ff 1f 00 00    	and    $0x1fff,%esi
  1057ff:	56                   	push   %esi
  105800:	e8 47 cb ff ff       	call   10234c <cpu_ram_read>
  105805:	83 c4 10             	add    $0x10,%esp
  105808:	0f b6 c0             	movzbl %al,%eax
  10580b:	a3 60 11 2b 00       	mov    %eax,0x2b1160
  105810:	66 83 05 80 19 2b 00 	addw   $0x2,0x2b1980
  105817:	02 
  105818:	8d 65 f8             	lea    -0x8(%ebp),%esp
  10581b:	5b                   	pop    %ebx
  10581c:	5e                   	pop    %esi
  10581d:	5d                   	pop    %ebp
  10581e:	c3                   	ret    
  10581f:	90                   	nop
  105820:	83 ec 0c             	sub    $0xc,%esp
  105823:	52                   	push   %edx
  105824:	e8 bb 10 00 00       	call   1068e4 <psg_io_read>
  105829:	83 c4 10             	add    $0x10,%esp
  10582c:	e9 56 ff ff ff       	jmp    105787 <cpu_address_absolute+0x4b>
  105831:	8d 76 00             	lea    0x0(%esi),%esi
  105834:	83 ec 0c             	sub    $0xc,%esp
  105837:	52                   	push   %edx
  105838:	e8 23 10 00 00       	call   106860 <mmc_read>
  10583d:	83 c4 10             	add    $0x10,%esp
  105840:	eb c6                	jmp    105808 <cpu_address_absolute+0xcc>
  105842:	66 90                	xchg   %ax,%ax
  105844:	83 ec 0c             	sub    $0xc,%esp
  105847:	52                   	push   %edx
  105848:	e8 97 10 00 00       	call   1068e4 <psg_io_read>
  10584d:	83 c4 10             	add    $0x10,%esp
  105850:	eb b6                	jmp    105808 <cpu_address_absolute+0xcc>
  105852:	66 90                	xchg   %ax,%ax
  105854:	83 ec 0c             	sub    $0xc,%esp
  105857:	81 e6 ff 07 00 00    	and    $0x7ff,%esi
  10585d:	56                   	push   %esi
  10585e:	e8 e9 ca ff ff       	call   10234c <cpu_ram_read>
  105863:	83 c4 10             	add    $0x10,%esp
  105866:	eb a0                	jmp    105808 <cpu_address_absolute+0xcc>
  105868:	83 ec 0c             	sub    $0xc,%esp
  10586b:	52                   	push   %edx
  10586c:	e8 9b b0 ff ff       	call   10090c <ppu_io_read>
  105871:	83 c4 10             	add    $0x10,%esp
  105874:	eb 92                	jmp    105808 <cpu_address_absolute+0xcc>
  105876:	66 90                	xchg   %ax,%ax
  105878:	83 ec 0c             	sub    $0xc,%esp
  10587b:	52                   	push   %edx
  10587c:	e8 df 0f 00 00       	call   106860 <mmc_read>
  105881:	83 c4 10             	add    $0x10,%esp
  105884:	e9 41 ff ff ff       	jmp    1057ca <cpu_address_absolute+0x8e>
  105889:	8d 76 00             	lea    0x0(%esi),%esi
  10588c:	83 ec 0c             	sub    $0xc,%esp
  10588f:	52                   	push   %edx
  105890:	e8 4f 10 00 00       	call   1068e4 <psg_io_read>
  105895:	83 c4 10             	add    $0x10,%esp
  105898:	e9 2d ff ff ff       	jmp    1057ca <cpu_address_absolute+0x8e>
  10589d:	8d 76 00             	lea    0x0(%esi),%esi
  1058a0:	83 ec 0c             	sub    $0xc,%esp
  1058a3:	81 e3 ff 07 00 00    	and    $0x7ff,%ebx
  1058a9:	53                   	push   %ebx
  1058aa:	e8 9d ca ff ff       	call   10234c <cpu_ram_read>
  1058af:	83 c4 10             	add    $0x10,%esp
  1058b2:	e9 13 ff ff ff       	jmp    1057ca <cpu_address_absolute+0x8e>
  1058b7:	90                   	nop
  1058b8:	83 ec 0c             	sub    $0xc,%esp
  1058bb:	52                   	push   %edx
  1058bc:	e8 4b b0 ff ff       	call   10090c <ppu_io_read>
  1058c1:	83 c4 10             	add    $0x10,%esp
  1058c4:	e9 01 ff ff ff       	jmp    1057ca <cpu_address_absolute+0x8e>
  1058c9:	8d 76 00             	lea    0x0(%esi),%esi
  1058cc:	83 ec 0c             	sub    $0xc,%esp
  1058cf:	52                   	push   %edx
  1058d0:	e8 8b 0f 00 00       	call   106860 <mmc_read>
  1058d5:	83 c4 10             	add    $0x10,%esp
  1058d8:	e9 aa fe ff ff       	jmp    105787 <cpu_address_absolute+0x4b>
  1058dd:	8d 76 00             	lea    0x0(%esi),%esi
  1058e0:	83 ec 0c             	sub    $0xc,%esp
  1058e3:	89 d0                	mov    %edx,%eax
  1058e5:	25 ff 07 00 00       	and    $0x7ff,%eax
  1058ea:	50                   	push   %eax
  1058eb:	e8 5c ca ff ff       	call   10234c <cpu_ram_read>
  1058f0:	83 c4 10             	add    $0x10,%esp
  1058f3:	e9 8f fe ff ff       	jmp    105787 <cpu_address_absolute+0x4b>
  1058f8:	83 ec 0c             	sub    $0xc,%esp
  1058fb:	52                   	push   %edx
  1058fc:	e8 0b b0 ff ff       	call   10090c <ppu_io_read>
  105901:	83 c4 10             	add    $0x10,%esp
  105904:	e9 7e fe ff ff       	jmp    105787 <cpu_address_absolute+0x4b>
  105909:	8d 76 00             	lea    0x0(%esi),%esi

0010590c <cpu_address_absolute_x>:
  10590c:	55                   	push   %ebp
  10590d:	89 e5                	mov    %esp,%ebp
  10590f:	56                   	push   %esi
  105910:	53                   	push   %ebx
  105911:	0f b7 15 80 19 2b 00 	movzwl 0x2b1980,%edx
  105918:	89 d6                	mov    %edx,%esi
  10591a:	89 d0                	mov    %edx,%eax
  10591c:	66 c1 e8 0d          	shr    $0xd,%ax
  105920:	66 83 f8 01          	cmp    $0x1,%ax
  105924:	0f 84 3a 01 00 00    	je     105a64 <cpu_address_absolute_x+0x158>
  10592a:	0f 82 1c 01 00 00    	jb     105a4c <cpu_address_absolute_x+0x140>
  105930:	66 83 f8 02          	cmp    $0x2,%ax
  105934:	0f 84 ea 00 00 00    	je     105a24 <cpu_address_absolute_x+0x118>
  10593a:	66 83 f8 03          	cmp    $0x3,%ax
  10593e:	0f 85 f4 00 00 00    	jne    105a38 <cpu_address_absolute_x+0x12c>
  105944:	83 ec 0c             	sub    $0xc,%esp
  105947:	89 d0                	mov    %edx,%eax
  105949:	25 ff 1f 00 00       	and    $0x1fff,%eax
  10594e:	50                   	push   %eax
  10594f:	e8 f8 c9 ff ff       	call   10234c <cpu_ram_read>
  105954:	83 c4 10             	add    $0x10,%esp
  105957:	0f b6 d8             	movzbl %al,%ebx
  10595a:	46                   	inc    %esi
  10595b:	0f b7 d6             	movzwl %si,%edx
  10595e:	89 f0                	mov    %esi,%eax
  105960:	66 c1 e8 0d          	shr    $0xd,%ax
  105964:	66 83 f8 01          	cmp    $0x1,%ax
  105968:	0f 84 9e 01 00 00    	je     105b0c <cpu_address_absolute_x+0x200>
  10596e:	0f 82 80 01 00 00    	jb     105af4 <cpu_address_absolute_x+0x1e8>
  105974:	66 83 f8 02          	cmp    $0x2,%ax
  105978:	0f 84 62 01 00 00    	je     105ae0 <cpu_address_absolute_x+0x1d4>
  10597e:	66 83 f8 03          	cmp    $0x3,%ax
  105982:	0f 85 44 01 00 00    	jne    105acc <cpu_address_absolute_x+0x1c0>
  105988:	83 ec 0c             	sub    $0xc,%esp
  10598b:	81 e6 ff 1f 00 00    	and    $0x1fff,%esi
  105991:	56                   	push   %esi
  105992:	e8 b5 c9 ff ff       	call   10234c <cpu_ram_read>
  105997:	83 c4 10             	add    $0x10,%esp
  10599a:	c1 e0 08             	shl    $0x8,%eax
  10599d:	01 d8                	add    %ebx,%eax
  10599f:	0f b7 c0             	movzwl %ax,%eax
  1059a2:	0f b6 15 84 19 2b 00 	movzbl 0x2b1984,%edx
  1059a9:	01 d0                	add    %edx,%eax
  1059ab:	a3 64 11 2b 00       	mov    %eax,0x2b1164
  1059b0:	0f b7 c8             	movzwl %ax,%ecx
  1059b3:	89 c2                	mov    %eax,%edx
  1059b5:	66 c1 ea 0d          	shr    $0xd,%dx
  1059b9:	66 83 fa 01          	cmp    $0x1,%dx
  1059bd:	0f 84 f5 00 00 00    	je     105ab8 <cpu_address_absolute_x+0x1ac>
  1059c3:	0f 82 d7 00 00 00    	jb     105aa0 <cpu_address_absolute_x+0x194>
  1059c9:	66 83 fa 02          	cmp    $0x2,%dx
  1059cd:	0f 84 b9 00 00 00    	je     105a8c <cpu_address_absolute_x+0x180>
  1059d3:	66 83 fa 03          	cmp    $0x3,%dx
  1059d7:	0f 85 9b 00 00 00    	jne    105a78 <cpu_address_absolute_x+0x16c>
  1059dd:	83 ec 0c             	sub    $0xc,%esp
  1059e0:	25 ff 1f 00 00       	and    $0x1fff,%eax
  1059e5:	50                   	push   %eax
  1059e6:	e8 61 c9 ff ff       	call   10234c <cpu_ram_read>
  1059eb:	83 c4 10             	add    $0x10,%esp
  1059ee:	0f b6 c0             	movzbl %al,%eax
  1059f1:	a3 60 11 2b 00       	mov    %eax,0x2b1160
  1059f6:	66 a1 80 19 2b 00    	mov    0x2b1980,%ax
  1059fc:	83 c0 02             	add    $0x2,%eax
  1059ff:	66 a3 80 19 2b 00    	mov    %ax,0x2b1980
  105a05:	8b 15 64 11 2b 00    	mov    0x2b1164,%edx
  105a0b:	c1 fa 08             	sar    $0x8,%edx
  105a0e:	0f b6 c4             	movzbl %ah,%eax
  105a11:	39 c2                	cmp    %eax,%edx
  105a13:	74 06                	je     105a1b <cpu_address_absolute_x+0x10f>
  105a15:	ff 05 c4 a1 2b 00    	incl   0x2ba1c4
  105a1b:	8d 65 f8             	lea    -0x8(%ebp),%esp
  105a1e:	5b                   	pop    %ebx
  105a1f:	5e                   	pop    %esi
  105a20:	5d                   	pop    %ebp
  105a21:	c3                   	ret    
  105a22:	66 90                	xchg   %ax,%ax
  105a24:	83 ec 0c             	sub    $0xc,%esp
  105a27:	52                   	push   %edx
  105a28:	e8 b7 0e 00 00       	call   1068e4 <psg_io_read>
  105a2d:	83 c4 10             	add    $0x10,%esp
  105a30:	e9 22 ff ff ff       	jmp    105957 <cpu_address_absolute_x+0x4b>
  105a35:	8d 76 00             	lea    0x0(%esi),%esi
  105a38:	83 ec 0c             	sub    $0xc,%esp
  105a3b:	52                   	push   %edx
  105a3c:	e8 1f 0e 00 00       	call   106860 <mmc_read>
  105a41:	83 c4 10             	add    $0x10,%esp
  105a44:	e9 0e ff ff ff       	jmp    105957 <cpu_address_absolute_x+0x4b>
  105a49:	8d 76 00             	lea    0x0(%esi),%esi
  105a4c:	83 ec 0c             	sub    $0xc,%esp
  105a4f:	89 d0                	mov    %edx,%eax
  105a51:	25 ff 07 00 00       	and    $0x7ff,%eax
  105a56:	50                   	push   %eax
  105a57:	e8 f0 c8 ff ff       	call   10234c <cpu_ram_read>
  105a5c:	83 c4 10             	add    $0x10,%esp
  105a5f:	e9 f3 fe ff ff       	jmp    105957 <cpu_address_absolute_x+0x4b>
  105a64:	83 ec 0c             	sub    $0xc,%esp
  105a67:	52                   	push   %edx
  105a68:	e8 9f ae ff ff       	call   10090c <ppu_io_read>
  105a6d:	83 c4 10             	add    $0x10,%esp
  105a70:	e9 e2 fe ff ff       	jmp    105957 <cpu_address_absolute_x+0x4b>
  105a75:	8d 76 00             	lea    0x0(%esi),%esi
  105a78:	83 ec 0c             	sub    $0xc,%esp
  105a7b:	51                   	push   %ecx
  105a7c:	e8 df 0d 00 00       	call   106860 <mmc_read>
  105a81:	83 c4 10             	add    $0x10,%esp
  105a84:	e9 65 ff ff ff       	jmp    1059ee <cpu_address_absolute_x+0xe2>
  105a89:	8d 76 00             	lea    0x0(%esi),%esi
  105a8c:	83 ec 0c             	sub    $0xc,%esp
  105a8f:	51                   	push   %ecx
  105a90:	e8 4f 0e 00 00       	call   1068e4 <psg_io_read>
  105a95:	83 c4 10             	add    $0x10,%esp
  105a98:	e9 51 ff ff ff       	jmp    1059ee <cpu_address_absolute_x+0xe2>
  105a9d:	8d 76 00             	lea    0x0(%esi),%esi
  105aa0:	83 ec 0c             	sub    $0xc,%esp
  105aa3:	25 ff 07 00 00       	and    $0x7ff,%eax
  105aa8:	50                   	push   %eax
  105aa9:	e8 9e c8 ff ff       	call   10234c <cpu_ram_read>
  105aae:	83 c4 10             	add    $0x10,%esp
  105ab1:	e9 38 ff ff ff       	jmp    1059ee <cpu_address_absolute_x+0xe2>
  105ab6:	66 90                	xchg   %ax,%ax
  105ab8:	83 ec 0c             	sub    $0xc,%esp
  105abb:	51                   	push   %ecx
  105abc:	e8 4b ae ff ff       	call   10090c <ppu_io_read>
  105ac1:	83 c4 10             	add    $0x10,%esp
  105ac4:	e9 25 ff ff ff       	jmp    1059ee <cpu_address_absolute_x+0xe2>
  105ac9:	8d 76 00             	lea    0x0(%esi),%esi
  105acc:	83 ec 0c             	sub    $0xc,%esp
  105acf:	52                   	push   %edx
  105ad0:	e8 8b 0d 00 00       	call   106860 <mmc_read>
  105ad5:	83 c4 10             	add    $0x10,%esp
  105ad8:	e9 bd fe ff ff       	jmp    10599a <cpu_address_absolute_x+0x8e>
  105add:	8d 76 00             	lea    0x0(%esi),%esi
  105ae0:	83 ec 0c             	sub    $0xc,%esp
  105ae3:	52                   	push   %edx
  105ae4:	e8 fb 0d 00 00       	call   1068e4 <psg_io_read>
  105ae9:	83 c4 10             	add    $0x10,%esp
  105aec:	e9 a9 fe ff ff       	jmp    10599a <cpu_address_absolute_x+0x8e>
  105af1:	8d 76 00             	lea    0x0(%esi),%esi
  105af4:	83 ec 0c             	sub    $0xc,%esp
  105af7:	81 e6 ff 07 00 00    	and    $0x7ff,%esi
  105afd:	56                   	push   %esi
  105afe:	e8 49 c8 ff ff       	call   10234c <cpu_ram_read>
  105b03:	83 c4 10             	add    $0x10,%esp
  105b06:	e9 8f fe ff ff       	jmp    10599a <cpu_address_absolute_x+0x8e>
  105b0b:	90                   	nop
  105b0c:	83 ec 0c             	sub    $0xc,%esp
  105b0f:	52                   	push   %edx
  105b10:	e8 f7 ad ff ff       	call   10090c <ppu_io_read>
  105b15:	83 c4 10             	add    $0x10,%esp
  105b18:	e9 7d fe ff ff       	jmp    10599a <cpu_address_absolute_x+0x8e>
  105b1d:	8d 76 00             	lea    0x0(%esi),%esi

00105b20 <cpu_address_absolute_y>:
  105b20:	55                   	push   %ebp
  105b21:	89 e5                	mov    %esp,%ebp
  105b23:	56                   	push   %esi
  105b24:	53                   	push   %ebx
  105b25:	0f b7 15 80 19 2b 00 	movzwl 0x2b1980,%edx
  105b2c:	89 d6                	mov    %edx,%esi
  105b2e:	89 d0                	mov    %edx,%eax
  105b30:	66 c1 e8 0d          	shr    $0xd,%ax
  105b34:	66 83 f8 01          	cmp    $0x1,%ax
  105b38:	0f 84 3a 01 00 00    	je     105c78 <cpu_address_absolute_y+0x158>
  105b3e:	0f 82 1c 01 00 00    	jb     105c60 <cpu_address_absolute_y+0x140>
  105b44:	66 83 f8 02          	cmp    $0x2,%ax
  105b48:	0f 84 ea 00 00 00    	je     105c38 <cpu_address_absolute_y+0x118>
  105b4e:	66 83 f8 03          	cmp    $0x3,%ax
  105b52:	0f 85 f4 00 00 00    	jne    105c4c <cpu_address_absolute_y+0x12c>
  105b58:	83 ec 0c             	sub    $0xc,%esp
  105b5b:	89 d0                	mov    %edx,%eax
  105b5d:	25 ff 1f 00 00       	and    $0x1fff,%eax
  105b62:	50                   	push   %eax
  105b63:	e8 e4 c7 ff ff       	call   10234c <cpu_ram_read>
  105b68:	83 c4 10             	add    $0x10,%esp
  105b6b:	0f b6 d8             	movzbl %al,%ebx
  105b6e:	46                   	inc    %esi
  105b6f:	0f b7 d6             	movzwl %si,%edx
  105b72:	89 f0                	mov    %esi,%eax
  105b74:	66 c1 e8 0d          	shr    $0xd,%ax
  105b78:	66 83 f8 01          	cmp    $0x1,%ax
  105b7c:	0f 84 9e 01 00 00    	je     105d20 <cpu_address_absolute_y+0x200>
  105b82:	0f 82 80 01 00 00    	jb     105d08 <cpu_address_absolute_y+0x1e8>
  105b88:	66 83 f8 02          	cmp    $0x2,%ax
  105b8c:	0f 84 62 01 00 00    	je     105cf4 <cpu_address_absolute_y+0x1d4>
  105b92:	66 83 f8 03          	cmp    $0x3,%ax
  105b96:	0f 85 44 01 00 00    	jne    105ce0 <cpu_address_absolute_y+0x1c0>
  105b9c:	83 ec 0c             	sub    $0xc,%esp
  105b9f:	81 e6 ff 1f 00 00    	and    $0x1fff,%esi
  105ba5:	56                   	push   %esi
  105ba6:	e8 a1 c7 ff ff       	call   10234c <cpu_ram_read>
  105bab:	83 c4 10             	add    $0x10,%esp
  105bae:	c1 e0 08             	shl    $0x8,%eax
  105bb1:	01 d8                	add    %ebx,%eax
  105bb3:	0f b7 c0             	movzwl %ax,%eax
  105bb6:	0f b6 15 85 19 2b 00 	movzbl 0x2b1985,%edx
  105bbd:	01 d0                	add    %edx,%eax
  105bbf:	0f b7 c8             	movzwl %ax,%ecx
  105bc2:	89 0d 64 11 2b 00    	mov    %ecx,0x2b1164
  105bc8:	89 c2                	mov    %eax,%edx
  105bca:	66 c1 ea 0d          	shr    $0xd,%dx
  105bce:	66 83 fa 01          	cmp    $0x1,%dx
  105bd2:	0f 84 f4 00 00 00    	je     105ccc <cpu_address_absolute_y+0x1ac>
  105bd8:	0f 82 d6 00 00 00    	jb     105cb4 <cpu_address_absolute_y+0x194>
  105bde:	66 83 fa 02          	cmp    $0x2,%dx
  105be2:	0f 84 b8 00 00 00    	je     105ca0 <cpu_address_absolute_y+0x180>
  105be8:	66 83 fa 03          	cmp    $0x3,%dx
  105bec:	0f 85 9a 00 00 00    	jne    105c8c <cpu_address_absolute_y+0x16c>
  105bf2:	83 ec 0c             	sub    $0xc,%esp
  105bf5:	25 ff 1f 00 00       	and    $0x1fff,%eax
  105bfa:	50                   	push   %eax
  105bfb:	e8 4c c7 ff ff       	call   10234c <cpu_ram_read>
  105c00:	83 c4 10             	add    $0x10,%esp
  105c03:	0f b6 c0             	movzbl %al,%eax
  105c06:	a3 60 11 2b 00       	mov    %eax,0x2b1160
  105c0b:	66 a1 80 19 2b 00    	mov    0x2b1980,%ax
  105c11:	83 c0 02             	add    $0x2,%eax
  105c14:	66 a3 80 19 2b 00    	mov    %ax,0x2b1980
  105c1a:	8b 15 64 11 2b 00    	mov    0x2b1164,%edx
  105c20:	c1 fa 08             	sar    $0x8,%edx
  105c23:	0f b6 c4             	movzbl %ah,%eax
  105c26:	39 c2                	cmp    %eax,%edx
  105c28:	74 06                	je     105c30 <cpu_address_absolute_y+0x110>
  105c2a:	ff 05 c4 a1 2b 00    	incl   0x2ba1c4
  105c30:	8d 65 f8             	lea    -0x8(%ebp),%esp
  105c33:	5b                   	pop    %ebx
  105c34:	5e                   	pop    %esi
  105c35:	5d                   	pop    %ebp
  105c36:	c3                   	ret    
  105c37:	90                   	nop
  105c38:	83 ec 0c             	sub    $0xc,%esp
  105c3b:	52                   	push   %edx
  105c3c:	e8 a3 0c 00 00       	call   1068e4 <psg_io_read>
  105c41:	83 c4 10             	add    $0x10,%esp
  105c44:	e9 22 ff ff ff       	jmp    105b6b <cpu_address_absolute_y+0x4b>
  105c49:	8d 76 00             	lea    0x0(%esi),%esi
  105c4c:	83 ec 0c             	sub    $0xc,%esp
  105c4f:	52                   	push   %edx
  105c50:	e8 0b 0c 00 00       	call   106860 <mmc_read>
  105c55:	83 c4 10             	add    $0x10,%esp
  105c58:	e9 0e ff ff ff       	jmp    105b6b <cpu_address_absolute_y+0x4b>
  105c5d:	8d 76 00             	lea    0x0(%esi),%esi
  105c60:	83 ec 0c             	sub    $0xc,%esp
  105c63:	89 d0                	mov    %edx,%eax
  105c65:	25 ff 07 00 00       	and    $0x7ff,%eax
  105c6a:	50                   	push   %eax
  105c6b:	e8 dc c6 ff ff       	call   10234c <cpu_ram_read>
  105c70:	83 c4 10             	add    $0x10,%esp
  105c73:	e9 f3 fe ff ff       	jmp    105b6b <cpu_address_absolute_y+0x4b>
  105c78:	83 ec 0c             	sub    $0xc,%esp
  105c7b:	52                   	push   %edx
  105c7c:	e8 8b ac ff ff       	call   10090c <ppu_io_read>
  105c81:	83 c4 10             	add    $0x10,%esp
  105c84:	e9 e2 fe ff ff       	jmp    105b6b <cpu_address_absolute_y+0x4b>
  105c89:	8d 76 00             	lea    0x0(%esi),%esi
  105c8c:	83 ec 0c             	sub    $0xc,%esp
  105c8f:	51                   	push   %ecx
  105c90:	e8 cb 0b 00 00       	call   106860 <mmc_read>
  105c95:	83 c4 10             	add    $0x10,%esp
  105c98:	e9 66 ff ff ff       	jmp    105c03 <cpu_address_absolute_y+0xe3>
  105c9d:	8d 76 00             	lea    0x0(%esi),%esi
  105ca0:	83 ec 0c             	sub    $0xc,%esp
  105ca3:	51                   	push   %ecx
  105ca4:	e8 3b 0c 00 00       	call   1068e4 <psg_io_read>
  105ca9:	83 c4 10             	add    $0x10,%esp
  105cac:	e9 52 ff ff ff       	jmp    105c03 <cpu_address_absolute_y+0xe3>
  105cb1:	8d 76 00             	lea    0x0(%esi),%esi
  105cb4:	83 ec 0c             	sub    $0xc,%esp
  105cb7:	25 ff 07 00 00       	and    $0x7ff,%eax
  105cbc:	50                   	push   %eax
  105cbd:	e8 8a c6 ff ff       	call   10234c <cpu_ram_read>
  105cc2:	83 c4 10             	add    $0x10,%esp
  105cc5:	e9 39 ff ff ff       	jmp    105c03 <cpu_address_absolute_y+0xe3>
  105cca:	66 90                	xchg   %ax,%ax
  105ccc:	83 ec 0c             	sub    $0xc,%esp
  105ccf:	51                   	push   %ecx
  105cd0:	e8 37 ac ff ff       	call   10090c <ppu_io_read>
  105cd5:	83 c4 10             	add    $0x10,%esp
  105cd8:	e9 26 ff ff ff       	jmp    105c03 <cpu_address_absolute_y+0xe3>
  105cdd:	8d 76 00             	lea    0x0(%esi),%esi
  105ce0:	83 ec 0c             	sub    $0xc,%esp
  105ce3:	52                   	push   %edx
  105ce4:	e8 77 0b 00 00       	call   106860 <mmc_read>
  105ce9:	83 c4 10             	add    $0x10,%esp
  105cec:	e9 bd fe ff ff       	jmp    105bae <cpu_address_absolute_y+0x8e>
  105cf1:	8d 76 00             	lea    0x0(%esi),%esi
  105cf4:	83 ec 0c             	sub    $0xc,%esp
  105cf7:	52                   	push   %edx
  105cf8:	e8 e7 0b 00 00       	call   1068e4 <psg_io_read>
  105cfd:	83 c4 10             	add    $0x10,%esp
  105d00:	e9 a9 fe ff ff       	jmp    105bae <cpu_address_absolute_y+0x8e>
  105d05:	8d 76 00             	lea    0x0(%esi),%esi
  105d08:	83 ec 0c             	sub    $0xc,%esp
  105d0b:	81 e6 ff 07 00 00    	and    $0x7ff,%esi
  105d11:	56                   	push   %esi
  105d12:	e8 35 c6 ff ff       	call   10234c <cpu_ram_read>
  105d17:	83 c4 10             	add    $0x10,%esp
  105d1a:	e9 8f fe ff ff       	jmp    105bae <cpu_address_absolute_y+0x8e>
  105d1f:	90                   	nop
  105d20:	83 ec 0c             	sub    $0xc,%esp
  105d23:	52                   	push   %edx
  105d24:	e8 e3 ab ff ff       	call   10090c <ppu_io_read>
  105d29:	83 c4 10             	add    $0x10,%esp
  105d2c:	e9 7d fe ff ff       	jmp    105bae <cpu_address_absolute_y+0x8e>
  105d31:	8d 76 00             	lea    0x0(%esi),%esi

00105d34 <cpu_address_relative>:
  105d34:	55                   	push   %ebp
  105d35:	89 e5                	mov    %esp,%ebp
  105d37:	83 ec 08             	sub    $0x8,%esp
  105d3a:	0f b7 0d 80 19 2b 00 	movzwl 0x2b1980,%ecx
  105d41:	89 ca                	mov    %ecx,%edx
  105d43:	66 c1 ea 0d          	shr    $0xd,%dx
  105d47:	66 83 fa 01          	cmp    $0x1,%dx
  105d4b:	0f 84 8f 00 00 00    	je     105de0 <cpu_address_relative+0xac>
  105d51:	89 c8                	mov    %ecx,%eax
  105d53:	72 77                	jb     105dcc <cpu_address_relative+0x98>
  105d55:	66 83 fa 02          	cmp    $0x2,%dx
  105d59:	74 51                	je     105dac <cpu_address_relative+0x78>
  105d5b:	66 83 fa 03          	cmp    $0x3,%dx
  105d5f:	75 5b                	jne    105dbc <cpu_address_relative+0x88>
  105d61:	83 ec 0c             	sub    $0xc,%esp
  105d64:	25 ff 1f 00 00       	and    $0x1fff,%eax
  105d69:	50                   	push   %eax
  105d6a:	e8 dd c5 ff ff       	call   10234c <cpu_ram_read>
  105d6f:	83 c4 10             	add    $0x10,%esp
  105d72:	0f b6 c8             	movzbl %al,%ecx
  105d75:	66 8b 15 80 19 2b 00 	mov    0x2b1980,%dx
  105d7c:	42                   	inc    %edx
  105d7d:	66 89 15 80 19 2b 00 	mov    %dx,0x2b1980
  105d84:	84 c0                	test   %al,%al
  105d86:	79 06                	jns    105d8e <cpu_address_relative+0x5a>
  105d88:	81 e9 00 01 00 00    	sub    $0x100,%ecx
  105d8e:	0f b7 c2             	movzwl %dx,%eax
  105d91:	01 c8                	add    %ecx,%eax
  105d93:	a3 64 11 2b 00       	mov    %eax,0x2b1164
  105d98:	c1 f8 08             	sar    $0x8,%eax
  105d9b:	0f b6 d6             	movzbl %dh,%edx
  105d9e:	39 d0                	cmp    %edx,%eax
  105da0:	74 06                	je     105da8 <cpu_address_relative+0x74>
  105da2:	ff 05 c4 a1 2b 00    	incl   0x2ba1c4
  105da8:	c9                   	leave  
  105da9:	c3                   	ret    
  105daa:	66 90                	xchg   %ax,%ax
  105dac:	83 ec 0c             	sub    $0xc,%esp
  105daf:	51                   	push   %ecx
  105db0:	e8 2f 0b 00 00       	call   1068e4 <psg_io_read>
  105db5:	83 c4 10             	add    $0x10,%esp
  105db8:	eb b8                	jmp    105d72 <cpu_address_relative+0x3e>
  105dba:	66 90                	xchg   %ax,%ax
  105dbc:	83 ec 0c             	sub    $0xc,%esp
  105dbf:	51                   	push   %ecx
  105dc0:	e8 9b 0a 00 00       	call   106860 <mmc_read>
  105dc5:	83 c4 10             	add    $0x10,%esp
  105dc8:	eb a8                	jmp    105d72 <cpu_address_relative+0x3e>
  105dca:	66 90                	xchg   %ax,%ax
  105dcc:	83 ec 0c             	sub    $0xc,%esp
  105dcf:	25 ff 07 00 00       	and    $0x7ff,%eax
  105dd4:	50                   	push   %eax
  105dd5:	e8 72 c5 ff ff       	call   10234c <cpu_ram_read>
  105dda:	83 c4 10             	add    $0x10,%esp
  105ddd:	eb 93                	jmp    105d72 <cpu_address_relative+0x3e>
  105ddf:	90                   	nop
  105de0:	83 ec 0c             	sub    $0xc,%esp
  105de3:	51                   	push   %ecx
  105de4:	e8 23 ab ff ff       	call   10090c <ppu_io_read>
  105de9:	83 c4 10             	add    $0x10,%esp
  105dec:	eb 84                	jmp    105d72 <cpu_address_relative+0x3e>
  105dee:	66 90                	xchg   %ax,%ax

00105df0 <cpu_address_indirect>:
  105df0:	55                   	push   %ebp
  105df1:	89 e5                	mov    %esp,%ebp
  105df3:	57                   	push   %edi
  105df4:	56                   	push   %esi
  105df5:	53                   	push   %ebx
  105df6:	83 ec 0c             	sub    $0xc,%esp
  105df9:	0f b7 15 80 19 2b 00 	movzwl 0x2b1980,%edx
  105e00:	89 d6                	mov    %edx,%esi
  105e02:	89 d0                	mov    %edx,%eax
  105e04:	66 c1 e8 0d          	shr    $0xd,%ax
  105e08:	66 83 f8 01          	cmp    $0x1,%ax
  105e0c:	0f 84 b2 01 00 00    	je     105fc4 <cpu_address_indirect+0x1d4>
  105e12:	0f 82 94 01 00 00    	jb     105fac <cpu_address_indirect+0x1bc>
  105e18:	66 83 f8 02          	cmp    $0x2,%ax
  105e1c:	0f 84 0e 01 00 00    	je     105f30 <cpu_address_indirect+0x140>
  105e22:	66 83 f8 03          	cmp    $0x3,%ax
  105e26:	0f 85 6c 01 00 00    	jne    105f98 <cpu_address_indirect+0x1a8>
  105e2c:	83 ec 0c             	sub    $0xc,%esp
  105e2f:	89 d0                	mov    %edx,%eax
  105e31:	25 ff 1f 00 00       	and    $0x1fff,%eax
  105e36:	50                   	push   %eax
  105e37:	e8 10 c5 ff ff       	call   10234c <cpu_ram_read>
  105e3c:	83 c4 10             	add    $0x10,%esp
  105e3f:	0f b6 d8             	movzbl %al,%ebx
  105e42:	46                   	inc    %esi
  105e43:	0f b7 d6             	movzwl %si,%edx
  105e46:	89 f0                	mov    %esi,%eax
  105e48:	66 c1 e8 0d          	shr    $0xd,%ax
  105e4c:	66 83 f8 01          	cmp    $0x1,%ax
  105e50:	0f 84 2e 01 00 00    	je     105f84 <cpu_address_indirect+0x194>
  105e56:	0f 82 10 01 00 00    	jb     105f6c <cpu_address_indirect+0x17c>
  105e5c:	66 83 f8 02          	cmp    $0x2,%ax
  105e60:	0f 84 f2 00 00 00    	je     105f58 <cpu_address_indirect+0x168>
  105e66:	66 83 f8 03          	cmp    $0x3,%ax
  105e6a:	0f 85 d4 00 00 00    	jne    105f44 <cpu_address_indirect+0x154>
  105e70:	83 ec 0c             	sub    $0xc,%esp
  105e73:	81 e6 ff 1f 00 00    	and    $0x1fff,%esi
  105e79:	56                   	push   %esi
  105e7a:	e8 cd c4 ff ff       	call   10234c <cpu_ram_read>
  105e7f:	83 c4 10             	add    $0x10,%esp
  105e82:	c1 e0 08             	shl    $0x8,%eax
  105e85:	01 c3                	add    %eax,%ebx
  105e87:	0f b7 f3             	movzwl %bx,%esi
  105e8a:	0f b6 c3             	movzbl %bl,%eax
  105e8d:	66 3d ff 00          	cmp    $0xff,%ax
  105e91:	89 d8                	mov    %ebx,%eax
  105e93:	0f 84 57 01 00 00    	je     105ff0 <cpu_address_indirect+0x200>
  105e99:	66 c1 e8 0d          	shr    $0xd,%ax
  105e9d:	66 83 f8 01          	cmp    $0x1,%ax
  105ea1:	0f 84 d5 01 00 00    	je     10607c <cpu_address_indirect+0x28c>
  105ea7:	0f 82 f7 01 00 00    	jb     1060a4 <cpu_address_indirect+0x2b4>
  105ead:	66 83 f8 02          	cmp    $0x2,%ax
  105eb1:	0f 84 d9 01 00 00    	je     106090 <cpu_address_indirect+0x2a0>
  105eb7:	66 83 f8 03          	cmp    $0x3,%ax
  105ebb:	0f 84 17 01 00 00    	je     105fd8 <cpu_address_indirect+0x1e8>
  105ec1:	83 ec 0c             	sub    $0xc,%esp
  105ec4:	56                   	push   %esi
  105ec5:	e8 96 09 00 00       	call   106860 <mmc_read>
  105eca:	83 c4 10             	add    $0x10,%esp
  105ecd:	0f b6 f0             	movzbl %al,%esi
  105ed0:	43                   	inc    %ebx
  105ed1:	0f b7 d3             	movzwl %bx,%edx
  105ed4:	89 d8                	mov    %ebx,%eax
  105ed6:	66 c1 e8 0d          	shr    $0xd,%ax
  105eda:	66 83 f8 01          	cmp    $0x1,%ax
  105ede:	0f 84 18 02 00 00    	je     1060fc <cpu_address_indirect+0x30c>
  105ee4:	0f 82 fa 01 00 00    	jb     1060e4 <cpu_address_indirect+0x2f4>
  105eea:	66 83 f8 02          	cmp    $0x2,%ax
  105eee:	0f 84 dc 01 00 00    	je     1060d0 <cpu_address_indirect+0x2e0>
  105ef4:	66 83 f8 03          	cmp    $0x3,%ax
  105ef8:	0f 85 be 01 00 00    	jne    1060bc <cpu_address_indirect+0x2cc>
  105efe:	83 ec 0c             	sub    $0xc,%esp
  105f01:	81 e3 ff 1f 00 00    	and    $0x1fff,%ebx
  105f07:	53                   	push   %ebx
  105f08:	e8 3f c4 ff ff       	call   10234c <cpu_ram_read>
  105f0d:	83 c4 10             	add    $0x10,%esp
  105f10:	c1 e0 08             	shl    $0x8,%eax
  105f13:	01 c6                	add    %eax,%esi
  105f15:	0f b7 f6             	movzwl %si,%esi
  105f18:	89 35 64 11 2b 00    	mov    %esi,0x2b1164
  105f1e:	66 83 05 80 19 2b 00 	addw   $0x2,0x2b1980
  105f25:	02 
  105f26:	8d 65 f4             	lea    -0xc(%ebp),%esp
  105f29:	5b                   	pop    %ebx
  105f2a:	5e                   	pop    %esi
  105f2b:	5f                   	pop    %edi
  105f2c:	5d                   	pop    %ebp
  105f2d:	c3                   	ret    
  105f2e:	66 90                	xchg   %ax,%ax
  105f30:	83 ec 0c             	sub    $0xc,%esp
  105f33:	52                   	push   %edx
  105f34:	e8 ab 09 00 00       	call   1068e4 <psg_io_read>
  105f39:	83 c4 10             	add    $0x10,%esp
  105f3c:	e9 fe fe ff ff       	jmp    105e3f <cpu_address_indirect+0x4f>
  105f41:	8d 76 00             	lea    0x0(%esi),%esi
  105f44:	83 ec 0c             	sub    $0xc,%esp
  105f47:	52                   	push   %edx
  105f48:	e8 13 09 00 00       	call   106860 <mmc_read>
  105f4d:	83 c4 10             	add    $0x10,%esp
  105f50:	e9 2d ff ff ff       	jmp    105e82 <cpu_address_indirect+0x92>
  105f55:	8d 76 00             	lea    0x0(%esi),%esi
  105f58:	83 ec 0c             	sub    $0xc,%esp
  105f5b:	52                   	push   %edx
  105f5c:	e8 83 09 00 00       	call   1068e4 <psg_io_read>
  105f61:	83 c4 10             	add    $0x10,%esp
  105f64:	e9 19 ff ff ff       	jmp    105e82 <cpu_address_indirect+0x92>
  105f69:	8d 76 00             	lea    0x0(%esi),%esi
  105f6c:	83 ec 0c             	sub    $0xc,%esp
  105f6f:	81 e6 ff 07 00 00    	and    $0x7ff,%esi
  105f75:	56                   	push   %esi
  105f76:	e8 d1 c3 ff ff       	call   10234c <cpu_ram_read>
  105f7b:	83 c4 10             	add    $0x10,%esp
  105f7e:	e9 ff fe ff ff       	jmp    105e82 <cpu_address_indirect+0x92>
  105f83:	90                   	nop
  105f84:	83 ec 0c             	sub    $0xc,%esp
  105f87:	52                   	push   %edx
  105f88:	e8 7f a9 ff ff       	call   10090c <ppu_io_read>
  105f8d:	83 c4 10             	add    $0x10,%esp
  105f90:	e9 ed fe ff ff       	jmp    105e82 <cpu_address_indirect+0x92>
  105f95:	8d 76 00             	lea    0x0(%esi),%esi
  105f98:	83 ec 0c             	sub    $0xc,%esp
  105f9b:	52                   	push   %edx
  105f9c:	e8 bf 08 00 00       	call   106860 <mmc_read>
  105fa1:	83 c4 10             	add    $0x10,%esp
  105fa4:	e9 96 fe ff ff       	jmp    105e3f <cpu_address_indirect+0x4f>
  105fa9:	8d 76 00             	lea    0x0(%esi),%esi
  105fac:	83 ec 0c             	sub    $0xc,%esp
  105faf:	89 d0                	mov    %edx,%eax
  105fb1:	25 ff 07 00 00       	and    $0x7ff,%eax
  105fb6:	50                   	push   %eax
  105fb7:	e8 90 c3 ff ff       	call   10234c <cpu_ram_read>
  105fbc:	83 c4 10             	add    $0x10,%esp
  105fbf:	e9 7b fe ff ff       	jmp    105e3f <cpu_address_indirect+0x4f>
  105fc4:	83 ec 0c             	sub    $0xc,%esp
  105fc7:	52                   	push   %edx
  105fc8:	e8 3f a9 ff ff       	call   10090c <ppu_io_read>
  105fcd:	83 c4 10             	add    $0x10,%esp
  105fd0:	e9 6a fe ff ff       	jmp    105e3f <cpu_address_indirect+0x4f>
  105fd5:	8d 76 00             	lea    0x0(%esi),%esi
  105fd8:	83 ec 0c             	sub    $0xc,%esp
  105fdb:	89 d8                	mov    %ebx,%eax
  105fdd:	25 ff 1f 00 00       	and    $0x1fff,%eax
  105fe2:	50                   	push   %eax
  105fe3:	e8 64 c3 ff ff       	call   10234c <cpu_ram_read>
  105fe8:	83 c4 10             	add    $0x10,%esp
  105feb:	e9 dd fe ff ff       	jmp    105ecd <cpu_address_indirect+0xdd>
  105ff0:	30 c0                	xor    %al,%al
  105ff2:	0f b7 d0             	movzwl %ax,%edx
  105ff5:	66 c1 e8 0d          	shr    $0xd,%ax
  105ff9:	66 83 f8 01          	cmp    $0x1,%ax
  105ffd:	0f 84 51 01 00 00    	je     106154 <cpu_address_indirect+0x364>
  106003:	0f 82 33 01 00 00    	jb     10613c <cpu_address_indirect+0x34c>
  106009:	66 83 f8 02          	cmp    $0x2,%ax
  10600d:	0f 84 15 01 00 00    	je     106128 <cpu_address_indirect+0x338>
  106013:	66 83 f8 03          	cmp    $0x3,%ax
  106017:	0f 84 f3 00 00 00    	je     106110 <cpu_address_indirect+0x320>
  10601d:	83 ec 0c             	sub    $0xc,%esp
  106020:	52                   	push   %edx
  106021:	e8 3a 08 00 00       	call   106860 <mmc_read>
  106026:	83 c4 10             	add    $0x10,%esp
  106029:	0f b6 c0             	movzbl %al,%eax
  10602c:	c1 e0 08             	shl    $0x8,%eax
  10602f:	89 c7                	mov    %eax,%edi
  106031:	89 d8                	mov    %ebx,%eax
  106033:	66 c1 e8 0d          	shr    $0xd,%ax
  106037:	66 83 f8 01          	cmp    $0x1,%ax
  10603b:	0f 84 67 01 00 00    	je     1061a8 <cpu_address_indirect+0x3b8>
  106041:	0f 82 49 01 00 00    	jb     106190 <cpu_address_indirect+0x3a0>
  106047:	66 83 f8 02          	cmp    $0x2,%ax
  10604b:	0f 84 2b 01 00 00    	je     10617c <cpu_address_indirect+0x38c>
  106051:	66 83 f8 03          	cmp    $0x3,%ax
  106055:	0f 85 0d 01 00 00    	jne    106168 <cpu_address_indirect+0x378>
  10605b:	83 ec 0c             	sub    $0xc,%esp
  10605e:	81 e3 ff 1f 00 00    	and    $0x1fff,%ebx
  106064:	53                   	push   %ebx
  106065:	e8 e2 c2 ff ff       	call   10234c <cpu_ram_read>
  10606a:	83 c4 10             	add    $0x10,%esp
  10606d:	0f b6 c0             	movzbl %al,%eax
  106070:	01 f8                	add    %edi,%eax
  106072:	a3 64 11 2b 00       	mov    %eax,0x2b1164
  106077:	e9 a2 fe ff ff       	jmp    105f1e <cpu_address_indirect+0x12e>
  10607c:	83 ec 0c             	sub    $0xc,%esp
  10607f:	56                   	push   %esi
  106080:	e8 87 a8 ff ff       	call   10090c <ppu_io_read>
  106085:	83 c4 10             	add    $0x10,%esp
  106088:	e9 40 fe ff ff       	jmp    105ecd <cpu_address_indirect+0xdd>
  10608d:	8d 76 00             	lea    0x0(%esi),%esi
  106090:	83 ec 0c             	sub    $0xc,%esp
  106093:	56                   	push   %esi
  106094:	e8 4b 08 00 00       	call   1068e4 <psg_io_read>
  106099:	83 c4 10             	add    $0x10,%esp
  10609c:	e9 2c fe ff ff       	jmp    105ecd <cpu_address_indirect+0xdd>
  1060a1:	8d 76 00             	lea    0x0(%esi),%esi
  1060a4:	83 ec 0c             	sub    $0xc,%esp
  1060a7:	89 d8                	mov    %ebx,%eax
  1060a9:	25 ff 07 00 00       	and    $0x7ff,%eax
  1060ae:	50                   	push   %eax
  1060af:	e8 98 c2 ff ff       	call   10234c <cpu_ram_read>
  1060b4:	83 c4 10             	add    $0x10,%esp
  1060b7:	e9 11 fe ff ff       	jmp    105ecd <cpu_address_indirect+0xdd>
  1060bc:	83 ec 0c             	sub    $0xc,%esp
  1060bf:	52                   	push   %edx
  1060c0:	e8 9b 07 00 00       	call   106860 <mmc_read>
  1060c5:	83 c4 10             	add    $0x10,%esp
  1060c8:	e9 43 fe ff ff       	jmp    105f10 <cpu_address_indirect+0x120>
  1060cd:	8d 76 00             	lea    0x0(%esi),%esi
  1060d0:	83 ec 0c             	sub    $0xc,%esp
  1060d3:	52                   	push   %edx
  1060d4:	e8 0b 08 00 00       	call   1068e4 <psg_io_read>
  1060d9:	83 c4 10             	add    $0x10,%esp
  1060dc:	e9 2f fe ff ff       	jmp    105f10 <cpu_address_indirect+0x120>
  1060e1:	8d 76 00             	lea    0x0(%esi),%esi
  1060e4:	83 ec 0c             	sub    $0xc,%esp
  1060e7:	81 e3 ff 07 00 00    	and    $0x7ff,%ebx
  1060ed:	53                   	push   %ebx
  1060ee:	e8 59 c2 ff ff       	call   10234c <cpu_ram_read>
  1060f3:	83 c4 10             	add    $0x10,%esp
  1060f6:	e9 15 fe ff ff       	jmp    105f10 <cpu_address_indirect+0x120>
  1060fb:	90                   	nop
  1060fc:	83 ec 0c             	sub    $0xc,%esp
  1060ff:	52                   	push   %edx
  106100:	e8 07 a8 ff ff       	call   10090c <ppu_io_read>
  106105:	83 c4 10             	add    $0x10,%esp
  106108:	e9 03 fe ff ff       	jmp    105f10 <cpu_address_indirect+0x120>
  10610d:	8d 76 00             	lea    0x0(%esi),%esi
  106110:	83 ec 0c             	sub    $0xc,%esp
  106113:	89 d8                	mov    %ebx,%eax
  106115:	25 00 1f 00 00       	and    $0x1f00,%eax
  10611a:	50                   	push   %eax
  10611b:	e8 2c c2 ff ff       	call   10234c <cpu_ram_read>
  106120:	83 c4 10             	add    $0x10,%esp
  106123:	e9 01 ff ff ff       	jmp    106029 <cpu_address_indirect+0x239>
  106128:	83 ec 0c             	sub    $0xc,%esp
  10612b:	52                   	push   %edx
  10612c:	e8 b3 07 00 00       	call   1068e4 <psg_io_read>
  106131:	83 c4 10             	add    $0x10,%esp
  106134:	e9 f0 fe ff ff       	jmp    106029 <cpu_address_indirect+0x239>
  106139:	8d 76 00             	lea    0x0(%esi),%esi
  10613c:	83 ec 0c             	sub    $0xc,%esp
  10613f:	89 d8                	mov    %ebx,%eax
  106141:	25 00 07 00 00       	and    $0x700,%eax
  106146:	50                   	push   %eax
  106147:	e8 00 c2 ff ff       	call   10234c <cpu_ram_read>
  10614c:	83 c4 10             	add    $0x10,%esp
  10614f:	e9 d5 fe ff ff       	jmp    106029 <cpu_address_indirect+0x239>
  106154:	83 ec 0c             	sub    $0xc,%esp
  106157:	52                   	push   %edx
  106158:	e8 af a7 ff ff       	call   10090c <ppu_io_read>
  10615d:	83 c4 10             	add    $0x10,%esp
  106160:	e9 c4 fe ff ff       	jmp    106029 <cpu_address_indirect+0x239>
  106165:	8d 76 00             	lea    0x0(%esi),%esi
  106168:	83 ec 0c             	sub    $0xc,%esp
  10616b:	56                   	push   %esi
  10616c:	e8 ef 06 00 00       	call   106860 <mmc_read>
  106171:	83 c4 10             	add    $0x10,%esp
  106174:	e9 f4 fe ff ff       	jmp    10606d <cpu_address_indirect+0x27d>
  106179:	8d 76 00             	lea    0x0(%esi),%esi
  10617c:	83 ec 0c             	sub    $0xc,%esp
  10617f:	56                   	push   %esi
  106180:	e8 5f 07 00 00       	call   1068e4 <psg_io_read>
  106185:	83 c4 10             	add    $0x10,%esp
  106188:	e9 e0 fe ff ff       	jmp    10606d <cpu_address_indirect+0x27d>
  10618d:	8d 76 00             	lea    0x0(%esi),%esi
  106190:	83 ec 0c             	sub    $0xc,%esp
  106193:	81 e3 ff 07 00 00    	and    $0x7ff,%ebx
  106199:	53                   	push   %ebx
  10619a:	e8 ad c1 ff ff       	call   10234c <cpu_ram_read>
  10619f:	83 c4 10             	add    $0x10,%esp
  1061a2:	e9 c6 fe ff ff       	jmp    10606d <cpu_address_indirect+0x27d>
  1061a7:	90                   	nop
  1061a8:	83 ec 0c             	sub    $0xc,%esp
  1061ab:	56                   	push   %esi
  1061ac:	e8 5b a7 ff ff       	call   10090c <ppu_io_read>
  1061b1:	83 c4 10             	add    $0x10,%esp
  1061b4:	e9 b4 fe ff ff       	jmp    10606d <cpu_address_indirect+0x27d>
  1061b9:	8d 76 00             	lea    0x0(%esi),%esi

001061bc <cpu_address_indirect_x>:
  1061bc:	55                   	push   %ebp
  1061bd:	89 e5                	mov    %esp,%ebp
  1061bf:	56                   	push   %esi
  1061c0:	53                   	push   %ebx
  1061c1:	0f b7 0d 80 19 2b 00 	movzwl 0x2b1980,%ecx
  1061c8:	89 ca                	mov    %ecx,%edx
  1061ca:	66 c1 ea 0d          	shr    $0xd,%dx
  1061ce:	66 83 fa 01          	cmp    $0x1,%dx
  1061d2:	0f 84 38 01 00 00    	je     106310 <cpu_address_indirect_x+0x154>
  1061d8:	89 c8                	mov    %ecx,%eax
  1061da:	0f 82 18 01 00 00    	jb     1062f8 <cpu_address_indirect_x+0x13c>
  1061e0:	66 83 fa 02          	cmp    $0x2,%dx
  1061e4:	0f 84 a2 00 00 00    	je     10628c <cpu_address_indirect_x+0xd0>
  1061ea:	66 83 fa 03          	cmp    $0x3,%dx
  1061ee:	0f 85 f0 00 00 00    	jne    1062e4 <cpu_address_indirect_x+0x128>
  1061f4:	83 ec 0c             	sub    $0xc,%esp
  1061f7:	25 ff 1f 00 00       	and    $0x1fff,%eax
  1061fc:	50                   	push   %eax
  1061fd:	e8 4a c1 ff ff       	call   10234c <cpu_ram_read>
  106202:	88 c3                	mov    %al,%bl
  106204:	83 c4 10             	add    $0x10,%esp
  106207:	83 ec 0c             	sub    $0xc,%esp
  10620a:	0f b6 05 84 19 2b 00 	movzbl 0x2b1984,%eax
  106211:	0f b6 cb             	movzbl %bl,%ecx
  106214:	8d 44 08 01          	lea    0x1(%eax,%ecx,1),%eax
  106218:	0f b6 c0             	movzbl %al,%eax
  10621b:	50                   	push   %eax
  10621c:	e8 2b c1 ff ff       	call   10234c <cpu_ram_read>
  106221:	89 c6                	mov    %eax,%esi
  106223:	02 1d 84 19 2b 00    	add    0x2b1984,%bl
  106229:	0f b6 d3             	movzbl %bl,%edx
  10622c:	89 14 24             	mov    %edx,(%esp)
  10622f:	e8 18 c1 ff ff       	call   10234c <cpu_ram_read>
  106234:	89 f1                	mov    %esi,%ecx
  106236:	0f b6 d9             	movzbl %cl,%ebx
  106239:	c1 e3 08             	shl    $0x8,%ebx
  10623c:	0f b6 c0             	movzbl %al,%eax
  10623f:	09 d8                	or     %ebx,%eax
  106241:	a3 64 11 2b 00       	mov    %eax,0x2b1164
  106246:	83 c4 10             	add    $0x10,%esp
  106249:	89 c2                	mov    %eax,%edx
  10624b:	66 c1 ea 0d          	shr    $0xd,%dx
  10624f:	66 83 fa 01          	cmp    $0x1,%dx
  106253:	74 7f                	je     1062d4 <cpu_address_indirect_x+0x118>
  106255:	72 69                	jb     1062c0 <cpu_address_indirect_x+0x104>
  106257:	66 83 fa 02          	cmp    $0x2,%dx
  10625b:	74 53                	je     1062b0 <cpu_address_indirect_x+0xf4>
  10625d:	66 83 fa 03          	cmp    $0x3,%dx
  106261:	75 3d                	jne    1062a0 <cpu_address_indirect_x+0xe4>
  106263:	83 ec 0c             	sub    $0xc,%esp
  106266:	25 ff 1f 00 00       	and    $0x1fff,%eax
  10626b:	50                   	push   %eax
  10626c:	e8 db c0 ff ff       	call   10234c <cpu_ram_read>
  106271:	83 c4 10             	add    $0x10,%esp
  106274:	0f b6 c0             	movzbl %al,%eax
  106277:	a3 60 11 2b 00       	mov    %eax,0x2b1160
  10627c:	66 ff 05 80 19 2b 00 	incw   0x2b1980
  106283:	8d 65 f8             	lea    -0x8(%ebp),%esp
  106286:	5b                   	pop    %ebx
  106287:	5e                   	pop    %esi
  106288:	5d                   	pop    %ebp
  106289:	c3                   	ret    
  10628a:	66 90                	xchg   %ax,%ax
  10628c:	83 ec 0c             	sub    $0xc,%esp
  10628f:	51                   	push   %ecx
  106290:	e8 4f 06 00 00       	call   1068e4 <psg_io_read>
  106295:	88 c3                	mov    %al,%bl
  106297:	83 c4 10             	add    $0x10,%esp
  10629a:	e9 68 ff ff ff       	jmp    106207 <cpu_address_indirect_x+0x4b>
  10629f:	90                   	nop
  1062a0:	83 ec 0c             	sub    $0xc,%esp
  1062a3:	50                   	push   %eax
  1062a4:	e8 b7 05 00 00       	call   106860 <mmc_read>
  1062a9:	83 c4 10             	add    $0x10,%esp
  1062ac:	eb c6                	jmp    106274 <cpu_address_indirect_x+0xb8>
  1062ae:	66 90                	xchg   %ax,%ax
  1062b0:	83 ec 0c             	sub    $0xc,%esp
  1062b3:	50                   	push   %eax
  1062b4:	e8 2b 06 00 00       	call   1068e4 <psg_io_read>
  1062b9:	83 c4 10             	add    $0x10,%esp
  1062bc:	eb b6                	jmp    106274 <cpu_address_indirect_x+0xb8>
  1062be:	66 90                	xchg   %ax,%ax
  1062c0:	83 ec 0c             	sub    $0xc,%esp
  1062c3:	25 ff 07 00 00       	and    $0x7ff,%eax
  1062c8:	50                   	push   %eax
  1062c9:	e8 7e c0 ff ff       	call   10234c <cpu_ram_read>
  1062ce:	83 c4 10             	add    $0x10,%esp
  1062d1:	eb a1                	jmp    106274 <cpu_address_indirect_x+0xb8>
  1062d3:	90                   	nop
  1062d4:	83 ec 0c             	sub    $0xc,%esp
  1062d7:	50                   	push   %eax
  1062d8:	e8 2f a6 ff ff       	call   10090c <ppu_io_read>
  1062dd:	83 c4 10             	add    $0x10,%esp
  1062e0:	eb 92                	jmp    106274 <cpu_address_indirect_x+0xb8>
  1062e2:	66 90                	xchg   %ax,%ax
  1062e4:	83 ec 0c             	sub    $0xc,%esp
  1062e7:	51                   	push   %ecx
  1062e8:	e8 73 05 00 00       	call   106860 <mmc_read>
  1062ed:	88 c3                	mov    %al,%bl
  1062ef:	83 c4 10             	add    $0x10,%esp
  1062f2:	e9 10 ff ff ff       	jmp    106207 <cpu_address_indirect_x+0x4b>
  1062f7:	90                   	nop
  1062f8:	83 ec 0c             	sub    $0xc,%esp
  1062fb:	25 ff 07 00 00       	and    $0x7ff,%eax
  106300:	50                   	push   %eax
  106301:	e8 46 c0 ff ff       	call   10234c <cpu_ram_read>
  106306:	88 c3                	mov    %al,%bl
  106308:	83 c4 10             	add    $0x10,%esp
  10630b:	e9 f7 fe ff ff       	jmp    106207 <cpu_address_indirect_x+0x4b>
  106310:	83 ec 0c             	sub    $0xc,%esp
  106313:	51                   	push   %ecx
  106314:	e8 f3 a5 ff ff       	call   10090c <ppu_io_read>
  106319:	88 c3                	mov    %al,%bl
  10631b:	83 c4 10             	add    $0x10,%esp
  10631e:	e9 e4 fe ff ff       	jmp    106207 <cpu_address_indirect_x+0x4b>
  106323:	90                   	nop

00106324 <cpu_address_indirect_y>:
  106324:	55                   	push   %ebp
  106325:	89 e5                	mov    %esp,%ebp
  106327:	56                   	push   %esi
  106328:	53                   	push   %ebx
  106329:	0f b7 0d 80 19 2b 00 	movzwl 0x2b1980,%ecx
  106330:	89 ca                	mov    %ecx,%edx
  106332:	66 c1 ea 0d          	shr    $0xd,%dx
  106336:	66 83 fa 01          	cmp    $0x1,%dx
  10633a:	0f 84 18 01 00 00    	je     106458 <cpu_address_indirect_y+0x134>
  106340:	89 c8                	mov    %ecx,%eax
  106342:	0f 82 f8 00 00 00    	jb     106440 <cpu_address_indirect_y+0x11c>
  106348:	66 83 fa 02          	cmp    $0x2,%dx
  10634c:	0f 84 c6 00 00 00    	je     106418 <cpu_address_indirect_y+0xf4>
  106352:	66 83 fa 03          	cmp    $0x3,%dx
  106356:	0f 85 d0 00 00 00    	jne    10642c <cpu_address_indirect_y+0x108>
  10635c:	83 ec 0c             	sub    $0xc,%esp
  10635f:	25 ff 1f 00 00       	and    $0x1fff,%eax
  106364:	50                   	push   %eax
  106365:	e8 e2 bf ff ff       	call   10234c <cpu_ram_read>
  10636a:	89 c6                	mov    %eax,%esi
  10636c:	83 c4 10             	add    $0x10,%esp
  10636f:	83 ec 0c             	sub    $0xc,%esp
  106372:	8d 46 01             	lea    0x1(%esi),%eax
  106375:	0f b6 c0             	movzbl %al,%eax
  106378:	50                   	push   %eax
  106379:	e8 ce bf ff ff       	call   10234c <cpu_ram_read>
  10637e:	0f b6 d8             	movzbl %al,%ebx
  106381:	89 f0                	mov    %esi,%eax
  106383:	0f b6 f0             	movzbl %al,%esi
  106386:	89 34 24             	mov    %esi,(%esp)
  106389:	e8 be bf ff ff       	call   10234c <cpu_ram_read>
  10638e:	c1 e3 08             	shl    $0x8,%ebx
  106391:	0f b6 c0             	movzbl %al,%eax
  106394:	09 d8                	or     %ebx,%eax
  106396:	0f b6 15 85 19 2b 00 	movzbl 0x2b1985,%edx
  10639d:	01 d0                	add    %edx,%eax
  10639f:	0f b7 c8             	movzwl %ax,%ecx
  1063a2:	89 0d 64 11 2b 00    	mov    %ecx,0x2b1164
  1063a8:	83 c4 10             	add    $0x10,%esp
  1063ab:	89 c2                	mov    %eax,%edx
  1063ad:	66 c1 ea 0d          	shr    $0xd,%dx
  1063b1:	66 83 fa 01          	cmp    $0x1,%dx
  1063b5:	0f 84 f1 00 00 00    	je     1064ac <cpu_address_indirect_y+0x188>
  1063bb:	0f 82 d3 00 00 00    	jb     106494 <cpu_address_indirect_y+0x170>
  1063c1:	66 83 fa 02          	cmp    $0x2,%dx
  1063c5:	0f 84 b5 00 00 00    	je     106480 <cpu_address_indirect_y+0x15c>
  1063cb:	66 83 fa 03          	cmp    $0x3,%dx
  1063cf:	0f 85 97 00 00 00    	jne    10646c <cpu_address_indirect_y+0x148>
  1063d5:	83 ec 0c             	sub    $0xc,%esp
  1063d8:	25 ff 1f 00 00       	and    $0x1fff,%eax
  1063dd:	50                   	push   %eax
  1063de:	e8 69 bf ff ff       	call   10234c <cpu_ram_read>
  1063e3:	83 c4 10             	add    $0x10,%esp
  1063e6:	0f b6 c0             	movzbl %al,%eax
  1063e9:	a3 60 11 2b 00       	mov    %eax,0x2b1160
  1063ee:	66 a1 80 19 2b 00    	mov    0x2b1980,%ax
  1063f4:	40                   	inc    %eax
  1063f5:	66 a3 80 19 2b 00    	mov    %ax,0x2b1980
  1063fb:	8b 15 64 11 2b 00    	mov    0x2b1164,%edx
  106401:	c1 fa 08             	sar    $0x8,%edx
  106404:	0f b6 c4             	movzbl %ah,%eax
  106407:	39 c2                	cmp    %eax,%edx
  106409:	74 06                	je     106411 <cpu_address_indirect_y+0xed>
  10640b:	ff 05 c4 a1 2b 00    	incl   0x2ba1c4
  106411:	8d 65 f8             	lea    -0x8(%ebp),%esp
  106414:	5b                   	pop    %ebx
  106415:	5e                   	pop    %esi
  106416:	5d                   	pop    %ebp
  106417:	c3                   	ret    
  106418:	83 ec 0c             	sub    $0xc,%esp
  10641b:	51                   	push   %ecx
  10641c:	e8 c3 04 00 00       	call   1068e4 <psg_io_read>
  106421:	89 c6                	mov    %eax,%esi
  106423:	83 c4 10             	add    $0x10,%esp
  106426:	e9 44 ff ff ff       	jmp    10636f <cpu_address_indirect_y+0x4b>
  10642b:	90                   	nop
  10642c:	83 ec 0c             	sub    $0xc,%esp
  10642f:	51                   	push   %ecx
  106430:	e8 2b 04 00 00       	call   106860 <mmc_read>
  106435:	89 c6                	mov    %eax,%esi
  106437:	83 c4 10             	add    $0x10,%esp
  10643a:	e9 30 ff ff ff       	jmp    10636f <cpu_address_indirect_y+0x4b>
  10643f:	90                   	nop
  106440:	83 ec 0c             	sub    $0xc,%esp
  106443:	25 ff 07 00 00       	and    $0x7ff,%eax
  106448:	50                   	push   %eax
  106449:	e8 fe be ff ff       	call   10234c <cpu_ram_read>
  10644e:	89 c6                	mov    %eax,%esi
  106450:	83 c4 10             	add    $0x10,%esp
  106453:	e9 17 ff ff ff       	jmp    10636f <cpu_address_indirect_y+0x4b>
  106458:	83 ec 0c             	sub    $0xc,%esp
  10645b:	51                   	push   %ecx
  10645c:	e8 ab a4 ff ff       	call   10090c <ppu_io_read>
  106461:	89 c6                	mov    %eax,%esi
  106463:	83 c4 10             	add    $0x10,%esp
  106466:	e9 04 ff ff ff       	jmp    10636f <cpu_address_indirect_y+0x4b>
  10646b:	90                   	nop
  10646c:	83 ec 0c             	sub    $0xc,%esp
  10646f:	51                   	push   %ecx
  106470:	e8 eb 03 00 00       	call   106860 <mmc_read>
  106475:	83 c4 10             	add    $0x10,%esp
  106478:	e9 69 ff ff ff       	jmp    1063e6 <cpu_address_indirect_y+0xc2>
  10647d:	8d 76 00             	lea    0x0(%esi),%esi
  106480:	83 ec 0c             	sub    $0xc,%esp
  106483:	51                   	push   %ecx
  106484:	e8 5b 04 00 00       	call   1068e4 <psg_io_read>
  106489:	83 c4 10             	add    $0x10,%esp
  10648c:	e9 55 ff ff ff       	jmp    1063e6 <cpu_address_indirect_y+0xc2>
  106491:	8d 76 00             	lea    0x0(%esi),%esi
  106494:	83 ec 0c             	sub    $0xc,%esp
  106497:	25 ff 07 00 00       	and    $0x7ff,%eax
  10649c:	50                   	push   %eax
  10649d:	e8 aa be ff ff       	call   10234c <cpu_ram_read>
  1064a2:	83 c4 10             	add    $0x10,%esp
  1064a5:	e9 3c ff ff ff       	jmp    1063e6 <cpu_address_indirect_y+0xc2>
  1064aa:	66 90                	xchg   %ax,%ax
  1064ac:	83 ec 0c             	sub    $0xc,%esp
  1064af:	51                   	push   %ecx
  1064b0:	e8 57 a4 ff ff       	call   10090c <ppu_io_read>
  1064b5:	83 c4 10             	add    $0x10,%esp
  1064b8:	e9 29 ff ff ff       	jmp    1063e6 <cpu_address_indirect_y+0xc2>
  1064bd:	66 90                	xchg   %ax,%ax
  1064bf:	90                   	nop

001064c0 <romread>:
  1064c0:	55                   	push   %ebp
  1064c1:	89 e5                	mov    %esp,%ebp
  1064c3:	a1 68 bf 29 00       	mov    0x29bf68,%eax
  1064c8:	8b 55 08             	mov    0x8(%ebp),%edx
  1064cb:	01 c2                	add    %eax,%edx
  1064cd:	89 15 68 bf 29 00    	mov    %edx,0x29bf68
  1064d3:	5d                   	pop    %ebp
  1064d4:	c3                   	ret    
  1064d5:	8d 76 00             	lea    0x0(%esi),%esi

001064d8 <fce_load_rom>:
  1064d8:	55                   	push   %ebp
  1064d9:	89 e5                	mov    %esp,%ebp
  1064db:	57                   	push   %edi
  1064dc:	56                   	push   %esi
  1064dd:	53                   	push   %ebx
  1064de:	83 ec 10             	sub    $0x10,%esp
  1064e1:	8b 45 08             	mov    0x8(%ebp),%eax
  1064e4:	8d 50 10             	lea    0x10(%eax),%edx
  1064e7:	89 15 68 bf 29 00    	mov    %edx,0x29bf68
  1064ed:	a3 64 bf 29 00       	mov    %eax,0x29bf64
  1064f2:	6a 04                	push   $0x4
  1064f4:	68 80 77 10 00       	push   $0x107780
  1064f9:	50                   	push   %eax
  1064fa:	e8 75 0c 00 00       	call   107174 <my_memcmp>
  1064ff:	83 c4 10             	add    $0x10,%esp
  106502:	85 c0                	test   %eax,%eax
  106504:	0f 85 c2 00 00 00    	jne    1065cc <fce_load_rom+0xf4>
  10650a:	89 c7                	mov    %eax,%edi
  10650c:	8b 15 64 bf 29 00    	mov    0x29bf64,%edx
  106512:	0f b7 42 06          	movzwl 0x6(%edx),%eax
  106516:	c1 f8 04             	sar    $0x4,%eax
  106519:	83 e0 0f             	and    $0xf,%eax
  10651c:	a2 00 b4 2e 00       	mov    %al,0x2eb400
  106521:	0f b6 52 04          	movzbl 0x4(%edx),%edx
  106525:	89 d1                	mov    %edx,%ecx
  106527:	8b 1d 68 bf 29 00    	mov    0x29bf68,%ebx
  10652d:	c1 e2 0e             	shl    $0xe,%edx
  106530:	01 da                	add    %ebx,%edx
  106532:	89 15 68 bf 29 00    	mov    %edx,0x29bf68
  106538:	84 c0                	test   %al,%al
  10653a:	0f 85 84 00 00 00    	jne    1065c4 <fce_load_rom+0xec>
  106540:	fe c9                	dec    %cl
  106542:	0f 84 8c 00 00 00    	je     1065d4 <fce_load_rom+0xfc>
  106548:	52                   	push   %edx
  106549:	68 00 80 00 00       	push   $0x8000
  10654e:	53                   	push   %ebx
  10654f:	68 00 80 00 00       	push   $0x8000
  106554:	e8 2b 03 00 00       	call   106884 <mmc_copy>
  106559:	83 c4 10             	add    $0x10,%esp
  10655c:	31 db                	xor    %ebx,%ebx
  10655e:	a1 64 bf 29 00       	mov    0x29bf64,%eax
  106563:	80 78 05 00          	cmpb   $0x0,0x5(%eax)
  106567:	75 11                	jne    10657a <fce_load_rom+0xa2>
  106569:	eb 4f                	jmp    1065ba <fce_load_rom+0xe2>
  10656b:	90                   	nop
  10656c:	43                   	inc    %ebx
  10656d:	a1 64 bf 29 00       	mov    0x29bf64,%eax
  106572:	0f b6 40 05          	movzbl 0x5(%eax),%eax
  106576:	39 d8                	cmp    %ebx,%eax
  106578:	7e 40                	jle    1065ba <fce_load_rom+0xe2>
  10657a:	8b 35 68 bf 29 00    	mov    0x29bf68,%esi
  106580:	8d 86 00 20 00 00    	lea    0x2000(%esi),%eax
  106586:	a3 68 bf 29 00       	mov    %eax,0x29bf68
  10658b:	83 ec 0c             	sub    $0xc,%esp
  10658e:	56                   	push   %esi
  10658f:	e8 1c 03 00 00       	call   1068b0 <mmc_append_chr_rom_page>
  106594:	83 c4 10             	add    $0x10,%esp
  106597:	85 db                	test   %ebx,%ebx
  106599:	75 d1                	jne    10656c <fce_load_rom+0x94>
  10659b:	50                   	push   %eax
  10659c:	68 00 20 00 00       	push   $0x2000
  1065a1:	56                   	push   %esi
  1065a2:	6a 00                	push   $0x0
  1065a4:	e8 4b a3 ff ff       	call   1008f4 <ppu_copy>
  1065a9:	83 c4 10             	add    $0x10,%esp
  1065ac:	43                   	inc    %ebx
  1065ad:	a1 64 bf 29 00       	mov    0x29bf64,%eax
  1065b2:	0f b6 40 05          	movzbl 0x5(%eax),%eax
  1065b6:	39 d8                	cmp    %ebx,%eax
  1065b8:	7f c0                	jg     10657a <fce_load_rom+0xa2>
  1065ba:	89 f8                	mov    %edi,%eax
  1065bc:	8d 65 f4             	lea    -0xc(%ebp),%esp
  1065bf:	5b                   	pop    %ebx
  1065c0:	5e                   	pop    %esi
  1065c1:	5f                   	pop    %edi
  1065c2:	5d                   	pop    %ebp
  1065c3:	c3                   	ret    
  1065c4:	3c 03                	cmp    $0x3,%al
  1065c6:	0f 84 74 ff ff ff    	je     106540 <fce_load_rom+0x68>
  1065cc:	bf ff ff ff ff       	mov    $0xffffffff,%edi
  1065d1:	eb e7                	jmp    1065ba <fce_load_rom+0xe2>
  1065d3:	90                   	nop
  1065d4:	51                   	push   %ecx
  1065d5:	68 00 40 00 00       	push   $0x4000
  1065da:	53                   	push   %ebx
  1065db:	68 00 80 00 00       	push   $0x8000
  1065e0:	e8 9f 02 00 00       	call   106884 <mmc_copy>
  1065e5:	83 c4 0c             	add    $0xc,%esp
  1065e8:	68 00 40 00 00       	push   $0x4000
  1065ed:	53                   	push   %ebx
  1065ee:	68 00 c0 00 00       	push   $0xc000
  1065f3:	e8 8c 02 00 00       	call   106884 <mmc_copy>
  1065f8:	83 c4 10             	add    $0x10,%esp
  1065fb:	e9 5c ff ff ff       	jmp    10655c <fce_load_rom+0x84>

00106600 <fce_init>:
  106600:	55                   	push   %ebp
  106601:	89 e5                	mov    %esp,%ebp
  106603:	83 ec 08             	sub    $0x8,%esp
  106606:	e8 a9 be ff ff       	call   1024b4 <cpu_init>
  10660b:	e8 24 a5 ff ff       	call   100b34 <ppu_init>
  106610:	83 ec 0c             	sub    $0xc,%esp
  106613:	a1 64 bf 29 00       	mov    0x29bf64,%eax
  106618:	66 8b 40 06          	mov    0x6(%eax),%ax
  10661c:	83 e0 01             	and    $0x1,%eax
  10661f:	50                   	push   %eax
  106620:	e8 2f a7 ff ff       	call   100d54 <ppu_set_mirroring>
  106625:	83 c4 10             	add    $0x10,%esp
  106628:	c9                   	leave  
  106629:	e9 6a eb ff ff       	jmp    105198 <cpu_reset>
  10662e:	66 90                	xchg   %ax,%ax

00106630 <wait_for_frame>:
  106630:	55                   	push   %ebp
  106631:	89 e5                	mov    %esp,%ebp
  106633:	83 ec 08             	sub    $0x8,%esp
  106636:	66 90                	xchg   %ax,%ax
  106638:	e8 af 0b 00 00       	call   1071ec <uptime>
  10663d:	89 c2                	mov    %eax,%edx
  10663f:	2b 15 60 bf 29 00    	sub    0x29bf60,%edx
  106645:	83 fa 0f             	cmp    $0xf,%edx
  106648:	76 ee                	jbe    106638 <wait_for_frame+0x8>
  10664a:	a3 60 bf 29 00       	mov    %eax,0x29bf60
  10664f:	c9                   	leave  
  106650:	c3                   	ret    
  106651:	8d 76 00             	lea    0x0(%esi),%esi

00106654 <fce_run>:
  106654:	55                   	push   %ebp
  106655:	89 e5                	mov    %esp,%ebp
  106657:	53                   	push   %ebx
  106658:	50                   	push   %eax
  106659:	c7 05 00 b0 2d 00 01 	movl   $0x1,0x2db000
  106660:	00 00 00 
  106663:	e8 84 0b 00 00       	call   1071ec <uptime>
  106668:	a3 60 bf 29 00       	mov    %eax,0x29bf60
  10666d:	8d 76 00             	lea    0x0(%esi),%esi
  106670:	e8 bb ff ff ff       	call   106630 <wait_for_frame>
  106675:	bb 06 01 00 00       	mov    $0x106,%ebx
  10667a:	66 90                	xchg   %ax,%ax
  10667c:	83 ec 0c             	sub    $0xc,%esp
  10667f:	6a 01                	push   $0x1
  106681:	e8 4e a2 ff ff       	call   1008d4 <ppu_run>
  106686:	c7 04 24 71 00 00 00 	movl   $0x71,(%esp)
  10668d:	e8 fa eb ff ff       	call   10528c <cpu_run>
  106692:	83 c4 10             	add    $0x10,%esp
  106695:	4b                   	dec    %ebx
  106696:	75 e4                	jne    10667c <fce_run+0x28>
  106698:	e8 83 0b 00 00       	call   107220 <read_key>
  10669d:	85 c0                	test   %eax,%eax
  10669f:	74 cf                	je     106670 <fce_run+0x1c>
  1066a1:	89 c2                	mov    %eax,%edx
  1066a3:	80 e6 7f             	and    $0x7f,%dh
  1066a6:	c1 e8 0f             	shr    $0xf,%eax
  1066a9:	83 e0 01             	and    $0x1,%eax
  1066ac:	89 04 95 00 b0 2d 00 	mov    %eax,0x2db000(,%edx,4)
  1066b3:	eb bb                	jmp    106670 <fce_run+0x1c>
  1066b5:	8d 76 00             	lea    0x0(%esi),%esi

001066b8 <fce_update_screen>:
  1066b8:	55                   	push   %ebp
  1066b9:	89 e5                	mov    %esp,%ebp
  1066bb:	57                   	push   %edi
  1066bc:	56                   	push   %esi
  1066bd:	53                   	push   %ebx
  1066be:	83 ec 38             	sub    $0x38,%esp
  1066c1:	68 00 3f 00 00       	push   $0x3f00
  1066c6:	e8 1d 9c ff ff       	call   1002e8 <ppu_ram_read>
  1066cb:	88 45 cb             	mov    %al,-0x35(%ebp)
  1066ce:	e8 4d 0c 00 00       	call   107320 <screen_width>
  1066d3:	89 c3                	mov    %eax,%ebx
  1066d5:	e8 7a 0c 00 00       	call   107354 <screen_height>
  1066da:	89 c7                	mov    %eax,%edi
  1066dc:	89 45 e0             	mov    %eax,-0x20(%ebp)
  1066df:	a1 e8 af 2d 00       	mov    0x2dafe8,%eax
  1066e4:	40                   	inc    %eax
  1066e5:	a3 e8 af 2d 00       	mov    %eax,0x2dafe8
  1066ea:	be 03 00 00 00       	mov    $0x3,%esi
  1066ef:	99                   	cltd   
  1066f0:	f7 fe                	idiv   %esi
  1066f2:	83 c4 10             	add    $0x10,%esp
  1066f5:	85 d2                	test   %edx,%edx
  1066f7:	0f 85 d6 00 00 00    	jne    1067d3 <fce_update_screen+0x11b>
  1066fd:	89 d6                	mov    %edx,%esi
  1066ff:	89 da                	mov    %ebx,%edx
  106701:	29 fa                	sub    %edi,%edx
  106703:	89 d0                	mov    %edx,%eax
  106705:	c1 e8 1f             	shr    $0x1f,%eax
  106708:	01 d0                	add    %edx,%eax
  10670a:	d1 f8                	sar    %eax
  10670c:	89 45 e4             	mov    %eax,-0x1c(%ebp)
  10670f:	85 ff                	test   %edi,%edi
  106711:	0f 8e 9f 00 00 00    	jle    1067b6 <fce_update_screen+0xfe>
  106717:	8b 7d e4             	mov    -0x1c(%ebp),%edi
  10671a:	89 f8                	mov    %edi,%eax
  10671c:	01 f8                	add    %edi,%eax
  10671e:	29 c3                	sub    %eax,%ebx
  106720:	89 5d d4             	mov    %ebx,-0x2c(%ebp)
  106723:	89 f8                	mov    %edi,%eax
  106725:	c1 e0 02             	shl    $0x2,%eax
  106728:	8d 90 60 9f 29 00    	lea    0x299f60(%eax),%edx
  10672e:	89 55 d8             	mov    %edx,-0x28(%ebp)
  106731:	01 df                	add    %ebx,%edi
  106733:	89 7d d0             	mov    %edi,-0x30(%ebp)
  106736:	05 60 af 29 00       	add    $0x29af60,%eax
  10673b:	89 45 cc             	mov    %eax,-0x34(%ebp)
  10673e:	8d 1c bd 60 af 29 00 	lea    0x29af60(,%edi,4),%ebx
  106745:	c7 45 dc 00 00 00 00 	movl   $0x0,-0x24(%ebp)
  10674c:	8b 45 dc             	mov    -0x24(%ebp),%eax
  10674f:	99                   	cltd   
  106750:	f7 7d e0             	idivl  -0x20(%ebp)
  106753:	8d 48 01             	lea    0x1(%eax),%ecx
  106756:	8b 7d d0             	mov    -0x30(%ebp),%edi
  106759:	39 7d e4             	cmp    %edi,-0x1c(%ebp)
  10675c:	7d 34                	jge    106792 <fce_update_screen+0xda>
  10675e:	8b 55 d8             	mov    -0x28(%ebp),%edx
  106761:	8b 45 cc             	mov    -0x34(%ebp),%eax
  106764:	89 cf                	mov    %ecx,%edi
  106766:	c1 e7 06             	shl    $0x6,%edi
  106769:	01 f9                	add    %edi,%ecx
  10676b:	8d 3c cd e0 a5 2b 00 	lea    0x2ba5e0(,%ecx,8),%edi
  106772:	66 90                	xchg   %ax,%ax
  106774:	8b 08                	mov    (%eax),%ecx
  106776:	01 f9                	add    %edi,%ecx
  106778:	0f b6 89 ff 00 00 00 	movzbl 0xff(%ecx),%ecx
  10677f:	8b 0c 8d a0 77 10 00 	mov    0x1077a0(,%ecx,4),%ecx
  106786:	89 0a                	mov    %ecx,(%edx)
  106788:	83 c0 04             	add    $0x4,%eax
  10678b:	83 c2 04             	add    $0x4,%edx
  10678e:	39 c3                	cmp    %eax,%ebx
  106790:	75 e2                	jne    106774 <fce_update_screen+0xbc>
  106792:	83 ec 0c             	sub    $0xc,%esp
  106795:	6a 01                	push   $0x1
  106797:	ff 75 d4             	pushl  -0x2c(%ebp)
  10679a:	56                   	push   %esi
  10679b:	ff 75 e4             	pushl  -0x1c(%ebp)
  10679e:	ff 75 d8             	pushl  -0x28(%ebp)
  1067a1:	e8 be 0a 00 00       	call   107264 <draw_rect>
  1067a6:	46                   	inc    %esi
  1067a7:	81 45 dc ef 00 00 00 	addl   $0xef,-0x24(%ebp)
  1067ae:	83 c4 20             	add    $0x20,%esp
  1067b1:	39 75 e0             	cmp    %esi,-0x20(%ebp)
  1067b4:	75 96                	jne    10674c <fce_update_screen+0x94>
  1067b6:	e8 05 0b 00 00       	call   1072c0 <draw_sync>
  1067bb:	50                   	push   %eax
  1067bc:	68 08 0a 02 00       	push   $0x20a08
  1067c1:	0f b6 45 cb          	movzbl -0x35(%ebp),%eax
  1067c5:	50                   	push   %eax
  1067c6:	68 e0 a5 2b 00       	push   $0x2ba5e0
  1067cb:	e8 5c 09 00 00       	call   10712c <my_memset>
  1067d0:	83 c4 10             	add    $0x10,%esp
  1067d3:	8d 65 f4             	lea    -0xc(%ebp),%esp
  1067d6:	5b                   	pop    %ebx
  1067d7:	5e                   	pop    %esi
  1067d8:	5f                   	pop    %edi
  1067d9:	5d                   	pop    %ebp
  1067da:	c3                   	ret    
  1067db:	90                   	nop

001067dc <xmap_init>:
  1067dc:	55                   	push   %ebp
  1067dd:	89 e5                	mov    %esp,%ebp
  1067df:	57                   	push   %edi
  1067e0:	56                   	push   %esi
  1067e1:	53                   	push   %ebx
  1067e2:	83 ec 0c             	sub    $0xc,%esp
  1067e5:	e8 36 0b 00 00       	call   107320 <screen_width>
  1067ea:	89 c7                	mov    %eax,%edi
  1067ec:	e8 63 0b 00 00       	call   107354 <screen_height>
  1067f1:	89 c6                	mov    %eax,%esi
  1067f3:	89 f8                	mov    %edi,%eax
  1067f5:	29 f0                	sub    %esi,%eax
  1067f7:	89 c2                	mov    %eax,%edx
  1067f9:	c1 ea 1f             	shr    $0x1f,%edx
  1067fc:	01 c2                	add    %eax,%edx
  1067fe:	d1 fa                	sar    %edx
  106800:	29 d7                	sub    %edx,%edi
  106802:	39 fa                	cmp    %edi,%edx
  106804:	7d 22                	jge    106828 <xmap_init+0x4c>
  106806:	8d 1c 95 60 af 29 00 	lea    0x29af60(,%edx,4),%ebx
  10680d:	29 d7                	sub    %edx,%edi
  10680f:	c1 e7 08             	shl    $0x8,%edi
  106812:	31 c9                	xor    %ecx,%ecx
  106814:	89 c8                	mov    %ecx,%eax
  106816:	99                   	cltd   
  106817:	f7 fe                	idiv   %esi
  106819:	89 03                	mov    %eax,(%ebx)
  10681b:	81 c1 00 01 00 00    	add    $0x100,%ecx
  106821:	83 c3 04             	add    $0x4,%ebx
  106824:	39 f9                	cmp    %edi,%ecx
  106826:	75 ec                	jne    106814 <xmap_init+0x38>
  106828:	83 c4 0c             	add    $0xc,%esp
  10682b:	5b                   	pop    %ebx
  10682c:	5e                   	pop    %esi
  10682d:	5f                   	pop    %edi
  10682e:	5d                   	pop    %ebp
  10682f:	c3                   	ret    

00106830 <main>:
  106830:	8d 4c 24 04          	lea    0x4(%esp),%ecx
  106834:	83 e4 f0             	and    $0xfffffff0,%esp
  106837:	ff 71 fc             	pushl  -0x4(%ecx)
  10683a:	55                   	push   %ebp
  10683b:	89 e5                	mov    %esp,%ebp
  10683d:	51                   	push   %ecx
  10683e:	50                   	push   %eax
  10683f:	e8 4c 0b 00 00       	call   107390 <_ioe_init>
  106844:	e8 93 ff ff ff       	call   1067dc <xmap_init>
  106849:	83 ec 0c             	sub    $0xc,%esp
  10684c:	68 e0 7e 10 00       	push   $0x107ee0
  106851:	e8 82 fc ff ff       	call   1064d8 <fce_load_rom>
  106856:	e8 a5 fd ff ff       	call   106600 <fce_init>
  10685b:	e8 f4 fd ff ff       	call   106654 <fce_run>

00106860 <mmc_read>:
  106860:	55                   	push   %ebp
  106861:	89 e5                	mov    %esp,%ebp
  106863:	0f b7 45 08          	movzwl 0x8(%ebp),%eax
  106867:	8a 80 00 b4 2d 00    	mov    0x2db400(%eax),%al
  10686d:	5d                   	pop    %ebp
  10686e:	c3                   	ret    
  10686f:	90                   	nop

00106870 <mmc_write>:
  106870:	55                   	push   %ebp
  106871:	89 e5                	mov    %esp,%ebp
  106873:	0f b7 45 08          	movzwl 0x8(%ebp),%eax
  106877:	8b 55 0c             	mov    0xc(%ebp),%edx
  10687a:	88 90 00 b4 2d 00    	mov    %dl,0x2db400(%eax)
  106880:	5d                   	pop    %ebp
  106881:	c3                   	ret    
  106882:	66 90                	xchg   %ax,%ax

00106884 <mmc_copy>:
  106884:	55                   	push   %ebp
  106885:	89 e5                	mov    %esp,%ebp
  106887:	56                   	push   %esi
  106888:	53                   	push   %ebx
  106889:	8b 5d 0c             	mov    0xc(%ebp),%ebx
  10688c:	8b 75 10             	mov    0x10(%ebp),%esi
  10688f:	0f b7 55 08          	movzwl 0x8(%ebp),%edx
  106893:	81 c2 00 b4 2d 00    	add    $0x2db400,%edx
  106899:	85 f6                	test   %esi,%esi
  10689b:	74 0e                	je     1068ab <mmc_copy+0x27>
  10689d:	31 c0                	xor    %eax,%eax
  10689f:	90                   	nop
  1068a0:	8a 0c 03             	mov    (%ebx,%eax,1),%cl
  1068a3:	88 0c 02             	mov    %cl,(%edx,%eax,1)
  1068a6:	40                   	inc    %eax
  1068a7:	39 c6                	cmp    %eax,%esi
  1068a9:	75 f5                	jne    1068a0 <mmc_copy+0x1c>
  1068ab:	5b                   	pop    %ebx
  1068ac:	5e                   	pop    %esi
  1068ad:	5d                   	pop    %ebp
  1068ae:	c3                   	ret    
  1068af:	90                   	nop

001068b0 <mmc_append_chr_rom_page>:
  1068b0:	55                   	push   %ebp
  1068b1:	89 e5                	mov    %esp,%ebp
  1068b3:	53                   	push   %ebx
  1068b4:	8b 4d 08             	mov    0x8(%ebp),%ecx
  1068b7:	8b 15 20 d4 2e 00    	mov    0x2ed420,%edx
  1068bd:	8d 42 01             	lea    0x1(%edx),%eax
  1068c0:	a3 20 d4 2e 00       	mov    %eax,0x2ed420
  1068c5:	c1 e2 0d             	shl    $0xd,%edx
  1068c8:	81 c2 20 b4 2e 00    	add    $0x2eb420,%edx
  1068ce:	31 c0                	xor    %eax,%eax
  1068d0:	8a 1c 01             	mov    (%ecx,%eax,1),%bl
  1068d3:	88 1c 02             	mov    %bl,(%edx,%eax,1)
  1068d6:	40                   	inc    %eax
  1068d7:	3d 00 20 00 00       	cmp    $0x2000,%eax
  1068dc:	75 f2                	jne    1068d0 <mmc_append_chr_rom_page+0x20>
  1068de:	5b                   	pop    %ebx
  1068df:	5d                   	pop    %ebp
  1068e0:	c3                   	ret    
  1068e1:	66 90                	xchg   %ax,%ax
  1068e3:	90                   	nop

001068e4 <psg_io_read>:
  1068e4:	55                   	push   %ebp
  1068e5:	89 e5                	mov    %esp,%ebp
  1068e7:	66 81 7d 08 16 40    	cmpw   $0x4016,0x8(%ebp)
  1068ed:	74 05                	je     1068f4 <psg_io_read+0x10>
  1068ef:	31 c0                	xor    %eax,%eax
  1068f1:	5d                   	pop    %ebp
  1068f2:	c3                   	ret    
  1068f3:	90                   	nop
  1068f4:	a1 f0 1e 11 00       	mov    0x111ef0,%eax
  1068f9:	8d 50 01             	lea    0x1(%eax),%edx
  1068fc:	89 15 f0 1e 11 00    	mov    %edx,0x111ef0
  106902:	83 f8 08             	cmp    $0x8,%eax
  106905:	7f e8                	jg     1068ef <psg_io_read+0xb>
  106907:	8b 04 95 a0 78 10 00 	mov    0x1078a0(,%edx,4),%eax
  10690e:	8a 04 85 00 b0 2d 00 	mov    0x2db000(,%eax,4),%al
  106915:	5d                   	pop    %ebp
  106916:	c3                   	ret    
  106917:	90                   	nop

00106918 <psg_io_write>:
  106918:	55                   	push   %ebp
  106919:	89 e5                	mov    %esp,%ebp
  10691b:	8b 45 0c             	mov    0xc(%ebp),%eax
  10691e:	66 81 7d 08 16 40    	cmpw   $0x4016,0x8(%ebp)
  106924:	74 0e                	je     106934 <psg_io_write+0x1c>
  106926:	88 c2                	mov    %al,%dl
  106928:	83 e2 01             	and    $0x1,%edx
  10692b:	88 15 6c bf 29 00    	mov    %dl,0x29bf6c
  106931:	5d                   	pop    %ebp
  106932:	c3                   	ret    
  106933:	90                   	nop
  106934:	88 c2                	mov    %al,%dl
  106936:	83 e2 01             	and    $0x1,%edx
  106939:	75 eb                	jne    106926 <psg_io_write+0xe>
  10693b:	80 3d 6c bf 29 00 01 	cmpb   $0x1,0x29bf6c
  106942:	75 e2                	jne    106926 <psg_io_write+0xe>
  106944:	c7 05 f0 1e 11 00 00 	movl   $0x0,0x111ef0
  10694b:	00 00 00 
  10694e:	eb db                	jmp    10692b <psg_io_write+0x13>

00106950 <get_number>:
  106950:	55                   	push   %ebp
  106951:	89 e5                	mov    %esp,%ebp
  106953:	57                   	push   %edi
  106954:	56                   	push   %esi
  106955:	53                   	push   %ebx
  106956:	81 ec 98 00 00 00    	sub    $0x98,%esp
  10695c:	89 c6                	mov    %eax,%esi
  10695e:	89 d0                	mov    %edx,%eax
  106960:	89 8d 70 ff ff ff    	mov    %ecx,-0x90(%ebp)
  106966:	f6 45 10 40          	testb  $0x40,0x10(%ebp)
  10696a:	0f 84 00 02 00 00    	je     106b70 <get_number+0x220>
  106970:	c7 85 5c ff ff ff a0 	movl   $0x107ca0,-0xa4(%ebp)
  106977:	7c 10 00 
  10697a:	8b 7d 10             	mov    0x10(%ebp),%edi
  10697d:	83 e7 10             	and    $0x10,%edi
  106980:	89 bd 68 ff ff ff    	mov    %edi,-0x98(%ebp)
  106986:	74 04                	je     10698c <get_number+0x3c>
  106988:	83 65 10 fe          	andl   $0xfffffffe,0x10(%ebp)
  10698c:	8b 55 10             	mov    0x10(%ebp),%edx
  10698f:	83 e2 01             	and    $0x1,%edx
  106992:	83 fa 01             	cmp    $0x1,%edx
  106995:	19 ff                	sbb    %edi,%edi
  106997:	89 fb                	mov    %edi,%ebx
  106999:	83 e3 f0             	and    $0xfffffff0,%ebx
  10699c:	83 c3 30             	add    $0x30,%ebx
  10699f:	88 9d 62 ff ff ff    	mov    %bl,-0x9e(%ebp)
  1069a5:	f6 45 10 02          	testb  $0x2,0x10(%ebp)
  1069a9:	74 24                	je     1069cf <get_number+0x7f>
  1069ab:	85 c0                	test   %eax,%eax
  1069ad:	0f 88 ed 01 00 00    	js     106ba0 <get_number+0x250>
  1069b3:	f6 45 10 04          	testb  $0x4,0x10(%ebp)
  1069b7:	0f 85 c2 01 00 00    	jne    106b7f <get_number+0x22f>
  1069bd:	f6 45 10 08          	testb  $0x8,0x10(%ebp)
  1069c1:	74 0c                	je     1069cf <get_number+0x7f>
  1069c3:	ff 4d 08             	decl   0x8(%ebp)
  1069c6:	c6 85 63 ff ff ff 20 	movb   $0x20,-0x9d(%ebp)
  1069cd:	eb 07                	jmp    1069d6 <get_number+0x86>
  1069cf:	c6 85 63 ff ff ff 00 	movb   $0x0,-0x9d(%ebp)
  1069d6:	8b 7d 10             	mov    0x10(%ebp),%edi
  1069d9:	83 e7 20             	and    $0x20,%edi
  1069dc:	89 bd 64 ff ff ff    	mov    %edi,-0x9c(%ebp)
  1069e2:	74 1a                	je     1069fe <get_number+0xae>
  1069e4:	83 bd 70 ff ff ff 10 	cmpl   $0x10,-0x90(%ebp)
  1069eb:	0f 84 a6 01 00 00    	je     106b97 <get_number+0x247>
  1069f1:	83 bd 70 ff ff ff 08 	cmpl   $0x8,-0x90(%ebp)
  1069f8:	0f 84 b3 01 00 00    	je     106bb1 <get_number+0x261>
  1069fe:	85 c0                	test   %eax,%eax
  106a00:	0f 85 32 01 00 00    	jne    106b38 <get_number+0x1e8>
  106a06:	c6 85 74 ff ff ff 30 	movb   $0x30,-0x8c(%ebp)
  106a0d:	31 c9                	xor    %ecx,%ecx
  106a0f:	bf 01 00 00 00       	mov    $0x1,%edi
  106a14:	bb 01 00 00 00       	mov    $0x1,%ebx
  106a19:	89 fa                	mov    %edi,%edx
  106a1b:	3b 7d 0c             	cmp    0xc(%ebp),%edi
  106a1e:	7d 03                	jge    106a23 <get_number+0xd3>
  106a20:	8b 55 0c             	mov    0xc(%ebp),%edx
  106a23:	8b 45 08             	mov    0x8(%ebp),%eax
  106a26:	29 d0                	sub    %edx,%eax
  106a28:	89 85 6c ff ff ff    	mov    %eax,-0x94(%ebp)
  106a2e:	f6 45 10 11          	testb  $0x11,0x10(%ebp)
  106a32:	75 2b                	jne    106a5f <get_number+0x10f>
  106a34:	48                   	dec    %eax
  106a35:	83 bd 6c ff ff ff 00 	cmpl   $0x0,-0x94(%ebp)
  106a3c:	0f 8e 99 01 00 00    	jle    106bdb <get_number+0x28b>
  106a42:	8b 85 6c ff ff ff    	mov    -0x94(%ebp),%eax
  106a48:	01 f0                	add    %esi,%eax
  106a4a:	66 90                	xchg   %ax,%ax
  106a4c:	46                   	inc    %esi
  106a4d:	c6 46 ff 20          	movb   $0x20,-0x1(%esi)
  106a51:	39 c6                	cmp    %eax,%esi
  106a53:	75 f7                	jne    106a4c <get_number+0xfc>
  106a55:	c7 85 6c ff ff ff ff 	movl   $0xffffffff,-0x94(%ebp)
  106a5c:	ff ff ff 
  106a5f:	8a 85 63 ff ff ff    	mov    -0x9d(%ebp),%al
  106a65:	84 c0                	test   %al,%al
  106a67:	74 03                	je     106a6c <get_number+0x11c>
  106a69:	88 06                	mov    %al,(%esi)
  106a6b:	46                   	inc    %esi
  106a6c:	8b 85 64 ff ff ff    	mov    -0x9c(%ebp),%eax
  106a72:	85 c0                	test   %eax,%eax
  106a74:	74 1a                	je     106a90 <get_number+0x140>
  106a76:	83 bd 70 ff ff ff 08 	cmpl   $0x8,-0x90(%ebp)
  106a7d:	0f 84 0b 01 00 00    	je     106b8e <get_number+0x23e>
  106a83:	83 bd 70 ff ff ff 10 	cmpl   $0x10,-0x90(%ebp)
  106a8a:	0f 84 29 01 00 00    	je     106bb9 <get_number+0x269>
  106a90:	8b 85 68 ff ff ff    	mov    -0x98(%ebp),%eax
  106a96:	85 c0                	test   %eax,%eax
  106a98:	75 44                	jne    106ade <get_number+0x18e>
  106a9a:	8b 85 6c ff ff ff    	mov    -0x94(%ebp),%eax
  106aa0:	48                   	dec    %eax
  106aa1:	83 bd 6c ff ff ff 00 	cmpl   $0x0,-0x94(%ebp)
  106aa8:	0f 8e 22 01 00 00    	jle    106bd0 <get_number+0x280>
  106aae:	8b 85 6c ff ff ff    	mov    -0x94(%ebp),%eax
  106ab4:	01 f0                	add    %esi,%eax
  106ab6:	89 bd 70 ff ff ff    	mov    %edi,-0x90(%ebp)
  106abc:	89 d7                	mov    %edx,%edi
  106abe:	8a 95 62 ff ff ff    	mov    -0x9e(%ebp),%dl
  106ac4:	46                   	inc    %esi
  106ac5:	88 56 ff             	mov    %dl,-0x1(%esi)
  106ac8:	39 f0                	cmp    %esi,%eax
  106aca:	75 f8                	jne    106ac4 <get_number+0x174>
  106acc:	89 fa                	mov    %edi,%edx
  106ace:	8b bd 70 ff ff ff    	mov    -0x90(%ebp),%edi
  106ad4:	c7 85 6c ff ff ff ff 	movl   $0xffffffff,-0x94(%ebp)
  106adb:	ff ff ff 
  106ade:	39 d7                	cmp    %edx,%edi
  106ae0:	7d 0f                	jge    106af1 <get_number+0x1a1>
  106ae2:	29 fa                	sub    %edi,%edx
  106ae4:	8d 04 16             	lea    (%esi,%edx,1),%eax
  106ae7:	90                   	nop
  106ae8:	46                   	inc    %esi
  106ae9:	c6 46 ff 30          	movb   $0x30,-0x1(%esi)
  106aed:	39 f0                	cmp    %esi,%eax
  106aef:	75 f7                	jne    106ae8 <get_number+0x198>
  106af1:	8d 95 74 ff ff ff    	lea    -0x8c(%ebp),%edx
  106af7:	01 d1                	add    %edx,%ecx
  106af9:	89 f0                	mov    %esi,%eax
  106afb:	bf 01 00 00 00       	mov    $0x1,%edi
  106b00:	29 d7                	sub    %edx,%edi
  106b02:	66 90                	xchg   %ax,%ax
  106b04:	40                   	inc    %eax
  106b05:	8a 11                	mov    (%ecx),%dl
  106b07:	88 50 ff             	mov    %dl,-0x1(%eax)
  106b0a:	49                   	dec    %ecx
  106b0b:	8d 14 0f             	lea    (%edi,%ecx,1),%edx
  106b0e:	85 d2                	test   %edx,%edx
  106b10:	7f f2                	jg     106b04 <get_number+0x1b4>
  106b12:	8d 04 1e             	lea    (%esi,%ebx,1),%eax
  106b15:	8b b5 6c ff ff ff    	mov    -0x94(%ebp),%esi
  106b1b:	85 f6                	test   %esi,%esi
  106b1d:	7e 0e                	jle    106b2d <get_number+0x1dd>
  106b1f:	89 f2                	mov    %esi,%edx
  106b21:	01 c2                	add    %eax,%edx
  106b23:	90                   	nop
  106b24:	40                   	inc    %eax
  106b25:	c6 40 ff 20          	movb   $0x20,-0x1(%eax)
  106b29:	39 c2                	cmp    %eax,%edx
  106b2b:	75 f7                	jne    106b24 <get_number+0x1d4>
  106b2d:	81 c4 98 00 00 00    	add    $0x98,%esp
  106b33:	5b                   	pop    %ebx
  106b34:	5e                   	pop    %esi
  106b35:	5f                   	pop    %edi
  106b36:	5d                   	pop    %ebp
  106b37:	c3                   	ret    
  106b38:	31 c9                	xor    %ecx,%ecx
  106b3a:	89 b5 6c ff ff ff    	mov    %esi,-0x94(%ebp)
  106b40:	8b b5 5c ff ff ff    	mov    -0xa4(%ebp),%esi
  106b46:	eb 02                	jmp    106b4a <get_number+0x1fa>
  106b48:	89 d9                	mov    %ebx,%ecx
  106b4a:	8d 59 01             	lea    0x1(%ecx),%ebx
  106b4d:	89 df                	mov    %ebx,%edi
  106b4f:	31 d2                	xor    %edx,%edx
  106b51:	f7 b5 70 ff ff ff    	divl   -0x90(%ebp)
  106b57:	8a 14 16             	mov    (%esi,%edx,1),%dl
  106b5a:	88 94 1d 73 ff ff ff 	mov    %dl,-0x8d(%ebp,%ebx,1)
  106b61:	85 c0                	test   %eax,%eax
  106b63:	75 e3                	jne    106b48 <get_number+0x1f8>
  106b65:	8b b5 6c ff ff ff    	mov    -0x94(%ebp),%esi
  106b6b:	e9 a9 fe ff ff       	jmp    106a19 <get_number+0xc9>
  106b70:	c7 85 5c ff ff ff c8 	movl   $0x107cc8,-0xa4(%ebp)
  106b77:	7c 10 00 
  106b7a:	e9 fb fd ff ff       	jmp    10697a <get_number+0x2a>
  106b7f:	ff 4d 08             	decl   0x8(%ebp)
  106b82:	c6 85 63 ff ff ff 2b 	movb   $0x2b,-0x9d(%ebp)
  106b89:	e9 48 fe ff ff       	jmp    1069d6 <get_number+0x86>
  106b8e:	c6 06 30             	movb   $0x30,(%esi)
  106b91:	46                   	inc    %esi
  106b92:	e9 f9 fe ff ff       	jmp    106a90 <get_number+0x140>
  106b97:	83 6d 08 02          	subl   $0x2,0x8(%ebp)
  106b9b:	e9 5e fe ff ff       	jmp    1069fe <get_number+0xae>
  106ba0:	f7 d8                	neg    %eax
  106ba2:	ff 4d 08             	decl   0x8(%ebp)
  106ba5:	c6 85 63 ff ff ff 2d 	movb   $0x2d,-0x9d(%ebp)
  106bac:	e9 25 fe ff ff       	jmp    1069d6 <get_number+0x86>
  106bb1:	ff 4d 08             	decl   0x8(%ebp)
  106bb4:	e9 45 fe ff ff       	jmp    1069fe <get_number+0xae>
  106bb9:	c6 06 30             	movb   $0x30,(%esi)
  106bbc:	8b 85 5c ff ff ff    	mov    -0xa4(%ebp),%eax
  106bc2:	8a 40 21             	mov    0x21(%eax),%al
  106bc5:	88 46 01             	mov    %al,0x1(%esi)
  106bc8:	83 c6 02             	add    $0x2,%esi
  106bcb:	e9 c0 fe ff ff       	jmp    106a90 <get_number+0x140>
  106bd0:	89 85 6c ff ff ff    	mov    %eax,-0x94(%ebp)
  106bd6:	e9 03 ff ff ff       	jmp    106ade <get_number+0x18e>
  106bdb:	89 85 6c ff ff ff    	mov    %eax,-0x94(%ebp)
  106be1:	e9 79 fe ff ff       	jmp    106a5f <get_number+0x10f>
  106be6:	66 90                	xchg   %ax,%ax

00106be8 <my_vsprintf>:
  106be8:	55                   	push   %ebp
  106be9:	89 e5                	mov    %esp,%ebp
  106beb:	57                   	push   %edi
  106bec:	56                   	push   %esi
  106bed:	53                   	push   %ebx
  106bee:	83 ec 1c             	sub    $0x1c,%esp
  106bf1:	8b 7d 0c             	mov    0xc(%ebp),%edi
  106bf4:	8a 07                	mov    (%edi),%al
  106bf6:	84 c0                	test   %al,%al
  106bf8:	0f 84 71 04 00 00    	je     10706f <my_vsprintf+0x487>
  106bfe:	8b 4d 08             	mov    0x8(%ebp),%ecx
  106c01:	89 4d dc             	mov    %ecx,-0x24(%ebp)
  106c04:	eb 1b                	jmp    106c21 <my_vsprintf+0x39>
  106c06:	8b 4d dc             	mov    -0x24(%ebp),%ecx
  106c09:	88 01                	mov    %al,(%ecx)
  106c0b:	89 fb                	mov    %edi,%ebx
  106c0d:	8d 41 01             	lea    0x1(%ecx),%eax
  106c10:	89 45 dc             	mov    %eax,-0x24(%ebp)
  106c13:	8d 7b 01             	lea    0x1(%ebx),%edi
  106c16:	8a 43 01             	mov    0x1(%ebx),%al
  106c19:	84 c0                	test   %al,%al
  106c1b:	0f 84 2e 02 00 00    	je     106e4f <my_vsprintf+0x267>
  106c21:	3c 25                	cmp    $0x25,%al
  106c23:	75 e1                	jne    106c06 <my_vsprintf+0x1e>
  106c25:	8a 47 01             	mov    0x1(%edi),%al
  106c28:	c7 45 e0 ff ff ff ff 	movl   $0xffffffff,-0x20(%ebp)
  106c2f:	c7 45 d8 ff ff ff ff 	movl   $0xffffffff,-0x28(%ebp)
  106c36:	be ff ff ff ff       	mov    $0xffffffff,%esi
  106c3b:	c7 45 e4 00 00 00 00 	movl   $0x0,-0x1c(%ebp)
  106c42:	66 90                	xchg   %ax,%ax
  106c44:	8d 5f 01             	lea    0x1(%edi),%ebx
  106c47:	3c 3a                	cmp    $0x3a,%al
  106c49:	74 25                	je     106c70 <my_vsprintf+0x88>
  106c4b:	8d 50 e0             	lea    -0x20(%eax),%edx
  106c4e:	80 fa 10             	cmp    $0x10,%dl
  106c51:	77 59                	ja     106cac <my_vsprintf+0xc4>
  106c53:	0f b6 d2             	movzbl %dl,%edx
  106c56:	ff 24 95 f0 7c 10 00 	jmp    *0x107cf0(,%edx,4)
  106c5d:	8d 76 00             	lea    0x0(%esi),%esi
  106c60:	83 4d e4 01          	orl    $0x1,-0x1c(%ebp)
  106c64:	8a 47 02             	mov    0x2(%edi),%al
  106c67:	89 df                	mov    %ebx,%edi
  106c69:	8d 5f 01             	lea    0x1(%edi),%ebx
  106c6c:	3c 3a                	cmp    $0x3a,%al
  106c6e:	75 db                	jne    106c4b <my_vsprintf+0x63>
  106c70:	83 ec 0c             	sub    $0xc,%esp
  106c73:	6a 00                	push   $0x0
  106c75:	e8 b2 93 ff ff       	call   10002c <_halt>
  106c7a:	66 90                	xchg   %ax,%ax
  106c7c:	83 4d e4 10          	orl    $0x10,-0x1c(%ebp)
  106c80:	8a 47 02             	mov    0x2(%edi),%al
  106c83:	89 df                	mov    %ebx,%edi
  106c85:	eb bd                	jmp    106c44 <my_vsprintf+0x5c>
  106c87:	90                   	nop
  106c88:	83 4d e4 04          	orl    $0x4,-0x1c(%ebp)
  106c8c:	8a 47 02             	mov    0x2(%edi),%al
  106c8f:	89 df                	mov    %ebx,%edi
  106c91:	eb b1                	jmp    106c44 <my_vsprintf+0x5c>
  106c93:	90                   	nop
  106c94:	83 4d e4 20          	orl    $0x20,-0x1c(%ebp)
  106c98:	8a 47 02             	mov    0x2(%edi),%al
  106c9b:	89 df                	mov    %ebx,%edi
  106c9d:	eb a5                	jmp    106c44 <my_vsprintf+0x5c>
  106c9f:	90                   	nop
  106ca0:	83 4d e4 08          	orl    $0x8,-0x1c(%ebp)
  106ca4:	8a 47 02             	mov    0x2(%edi),%al
  106ca7:	89 df                	mov    %ebx,%edi
  106ca9:	eb 99                	jmp    106c44 <my_vsprintf+0x5c>
  106cab:	90                   	nop
  106cac:	0f be d0             	movsbl %al,%edx
  106caf:	8d 4a d0             	lea    -0x30(%edx),%ecx
  106cb2:	83 f9 09             	cmp    $0x9,%ecx
  106cb5:	77 29                	ja     106ce0 <my_vsprintf+0xf8>
  106cb7:	31 f6                	xor    %esi,%esi
  106cb9:	eb 03                	jmp    106cbe <my_vsprintf+0xd6>
  106cbb:	90                   	nop
  106cbc:	89 cb                	mov    %ecx,%ebx
  106cbe:	8d 4b 01             	lea    0x1(%ebx),%ecx
  106cc1:	8d 04 b6             	lea    (%esi,%esi,4),%eax
  106cc4:	01 c0                	add    %eax,%eax
  106cc6:	8d 74 10 d0          	lea    -0x30(%eax,%edx,1),%esi
  106cca:	0f be 53 01          	movsbl 0x1(%ebx),%edx
  106cce:	89 d0                	mov    %edx,%eax
  106cd0:	8d 7a d0             	lea    -0x30(%edx),%edi
  106cd3:	83 ff 09             	cmp    $0x9,%edi
  106cd6:	76 e4                	jbe    106cbc <my_vsprintf+0xd4>
  106cd8:	89 df                	mov    %ebx,%edi
  106cda:	e9 65 ff ff ff       	jmp    106c44 <my_vsprintf+0x5c>
  106cdf:	90                   	nop
  106ce0:	3c 2a                	cmp    $0x2a,%al
  106ce2:	0f 84 90 00 00 00    	je     106d78 <my_vsprintf+0x190>
  106ce8:	3c 2e                	cmp    $0x2e,%al
  106cea:	74 28                	je     106d14 <my_vsprintf+0x12c>
  106cec:	3c 68                	cmp    $0x68,%al
  106cee:	74 74                	je     106d64 <my_vsprintf+0x17c>
  106cf0:	3c 6c                	cmp    $0x6c,%al
  106cf2:	0f 84 9c 00 00 00    	je     106d94 <my_vsprintf+0x1ac>
  106cf8:	3c 4c                	cmp    $0x4c,%al
  106cfa:	0f 85 f6 00 00 00    	jne    106df6 <my_vsprintf+0x20e>
  106d00:	8a 47 02             	mov    0x2(%edi),%al
  106d03:	89 df                	mov    %ebx,%edi
  106d05:	c7 45 e0 4c 00 00 00 	movl   $0x4c,-0x20(%ebp)
  106d0c:	e9 33 ff ff ff       	jmp    106c44 <my_vsprintf+0x5c>
  106d11:	8d 76 00             	lea    0x0(%esi),%esi
  106d14:	8d 5f 02             	lea    0x2(%edi),%ebx
  106d17:	0f be 57 02          	movsbl 0x2(%edi),%edx
  106d1b:	8d 4a d0             	lea    -0x30(%edx),%ecx
  106d1e:	83 f9 09             	cmp    $0x9,%ecx
  106d21:	0f 87 81 00 00 00    	ja     106da8 <my_vsprintf+0x1c0>
  106d27:	31 c9                	xor    %ecx,%ecx
  106d29:	89 75 d8             	mov    %esi,-0x28(%ebp)
  106d2c:	eb 04                	jmp    106d32 <my_vsprintf+0x14a>
  106d2e:	66 90                	xchg   %ax,%ax
  106d30:	89 fb                	mov    %edi,%ebx
  106d32:	8d 7b 01             	lea    0x1(%ebx),%edi
  106d35:	8d 04 89             	lea    (%ecx,%ecx,4),%eax
  106d38:	01 c0                	add    %eax,%eax
  106d3a:	8d 4c 10 d0          	lea    -0x30(%eax,%edx,1),%ecx
  106d3e:	0f be 53 01          	movsbl 0x1(%ebx),%edx
  106d42:	89 d0                	mov    %edx,%eax
  106d44:	8d 72 d0             	lea    -0x30(%edx),%esi
  106d47:	83 fe 09             	cmp    $0x9,%esi
  106d4a:	76 e4                	jbe    106d30 <my_vsprintf+0x148>
  106d4c:	8b 75 d8             	mov    -0x28(%ebp),%esi
  106d4f:	89 4d d8             	mov    %ecx,-0x28(%ebp)
  106d52:	85 c9                	test   %ecx,%ecx
  106d54:	79 82                	jns    106cd8 <my_vsprintf+0xf0>
  106d56:	c7 45 d8 00 00 00 00 	movl   $0x0,-0x28(%ebp)
  106d5d:	89 df                	mov    %ebx,%edi
  106d5f:	e9 e0 fe ff ff       	jmp    106c44 <my_vsprintf+0x5c>
  106d64:	8a 47 02             	mov    0x2(%edi),%al
  106d67:	89 df                	mov    %ebx,%edi
  106d69:	c7 45 e0 68 00 00 00 	movl   $0x68,-0x20(%ebp)
  106d70:	e9 cf fe ff ff       	jmp    106c44 <my_vsprintf+0x5c>
  106d75:	8d 76 00             	lea    0x0(%esi),%esi
  106d78:	8b 45 10             	mov    0x10(%ebp),%eax
  106d7b:	8d 50 04             	lea    0x4(%eax),%edx
  106d7e:	8b 30                	mov    (%eax),%esi
  106d80:	85 f6                	test   %esi,%esi
  106d82:	78 3a                	js     106dbe <my_vsprintf+0x1d6>
  106d84:	8a 47 02             	mov    0x2(%edi),%al
  106d87:	89 55 10             	mov    %edx,0x10(%ebp)
  106d8a:	89 df                	mov    %ebx,%edi
  106d8c:	e9 b3 fe ff ff       	jmp    106c44 <my_vsprintf+0x5c>
  106d91:	8d 76 00             	lea    0x0(%esi),%esi
  106d94:	8a 47 02             	mov    0x2(%edi),%al
  106d97:	89 df                	mov    %ebx,%edi
  106d99:	c7 45 e0 6c 00 00 00 	movl   $0x6c,-0x20(%ebp)
  106da0:	e9 9f fe ff ff       	jmp    106c44 <my_vsprintf+0x5c>
  106da5:	8d 76 00             	lea    0x0(%esi),%esi
  106da8:	80 fa 2a             	cmp    $0x2a,%dl
  106dab:	74 2d                	je     106dda <my_vsprintf+0x1f2>
  106dad:	8b 4d d8             	mov    -0x28(%ebp),%ecx
  106db0:	85 c9                	test   %ecx,%ecx
  106db2:	78 1d                	js     106dd1 <my_vsprintf+0x1e9>
  106db4:	8a 47 03             	mov    0x3(%edi),%al
  106db7:	89 df                	mov    %ebx,%edi
  106db9:	e9 86 fe ff ff       	jmp    106c44 <my_vsprintf+0x5c>
  106dbe:	f7 de                	neg    %esi
  106dc0:	83 4d e4 10          	orl    $0x10,-0x1c(%ebp)
  106dc4:	8a 47 02             	mov    0x2(%edi),%al
  106dc7:	89 55 10             	mov    %edx,0x10(%ebp)
  106dca:	89 df                	mov    %ebx,%edi
  106dcc:	e9 73 fe ff ff       	jmp    106c44 <my_vsprintf+0x5c>
  106dd1:	c7 45 d8 00 00 00 00 	movl   $0x0,-0x28(%ebp)
  106dd8:	eb da                	jmp    106db4 <my_vsprintf+0x1cc>
  106dda:	8b 45 10             	mov    0x10(%ebp),%eax
  106ddd:	8d 50 04             	lea    0x4(%eax),%edx
  106de0:	8b 00                	mov    (%eax),%eax
  106de2:	89 45 d8             	mov    %eax,-0x28(%ebp)
  106de5:	85 c0                	test   %eax,%eax
  106de7:	78 7a                	js     106e63 <my_vsprintf+0x27b>
  106de9:	8a 47 03             	mov    0x3(%edi),%al
  106dec:	89 55 10             	mov    %edx,0x10(%ebp)
  106def:	89 df                	mov    %ebx,%edi
  106df1:	e9 4e fe ff ff       	jmp    106c44 <my_vsprintf+0x5c>
  106df6:	83 e8 25             	sub    $0x25,%eax
  106df9:	3c 53                	cmp    $0x53,%al
  106dfb:	77 0e                	ja     106e0b <my_vsprintf+0x223>
  106dfd:	0f b6 c0             	movzbl %al,%eax
  106e00:	ff 24 85 34 7d 10 00 	jmp    *0x107d34(,%eax,4)
  106e07:	83 4d e4 02          	orl    $0x2,-0x1c(%ebp)
  106e0b:	b9 0a 00 00 00       	mov    $0xa,%ecx
  106e10:	8b 45 10             	mov    0x10(%ebp),%eax
  106e13:	83 7d e0 6c          	cmpl   $0x6c,-0x20(%ebp)
  106e17:	74 64                	je     106e7d <my_vsprintf+0x295>
  106e19:	83 7d e0 68          	cmpl   $0x68,-0x20(%ebp)
  106e1d:	0f 84 fc 01 00 00    	je     10701f <my_vsprintf+0x437>
  106e23:	8b 10                	mov    (%eax),%edx
  106e25:	83 c0 04             	add    $0x4,%eax
  106e28:	89 45 10             	mov    %eax,0x10(%ebp)
  106e2b:	50                   	push   %eax
  106e2c:	ff 75 e4             	pushl  -0x1c(%ebp)
  106e2f:	ff 75 d8             	pushl  -0x28(%ebp)
  106e32:	56                   	push   %esi
  106e33:	8b 45 dc             	mov    -0x24(%ebp),%eax
  106e36:	e8 15 fb ff ff       	call   106950 <get_number>
  106e3b:	89 45 dc             	mov    %eax,-0x24(%ebp)
  106e3e:	83 c4 10             	add    $0x10,%esp
  106e41:	8d 7b 01             	lea    0x1(%ebx),%edi
  106e44:	8a 43 01             	mov    0x1(%ebx),%al
  106e47:	84 c0                	test   %al,%al
  106e49:	0f 85 d2 fd ff ff    	jne    106c21 <my_vsprintf+0x39>
  106e4f:	8b 45 dc             	mov    -0x24(%ebp),%eax
  106e52:	2b 45 08             	sub    0x8(%ebp),%eax
  106e55:	8b 4d dc             	mov    -0x24(%ebp),%ecx
  106e58:	c6 01 00             	movb   $0x0,(%ecx)
  106e5b:	8d 65 f4             	lea    -0xc(%ebp),%esp
  106e5e:	5b                   	pop    %ebx
  106e5f:	5e                   	pop    %esi
  106e60:	5f                   	pop    %edi
  106e61:	5d                   	pop    %ebp
  106e62:	c3                   	ret    
  106e63:	c7 45 d8 00 00 00 00 	movl   $0x0,-0x28(%ebp)
  106e6a:	e9 7a ff ff ff       	jmp    106de9 <my_vsprintf+0x201>
  106e6f:	b9 10 00 00 00       	mov    $0x10,%ecx
  106e74:	8b 45 10             	mov    0x10(%ebp),%eax
  106e77:	83 7d e0 6c          	cmpl   $0x6c,-0x20(%ebp)
  106e7b:	75 9c                	jne    106e19 <my_vsprintf+0x231>
  106e7d:	8b 10                	mov    (%eax),%edx
  106e7f:	83 c0 04             	add    $0x4,%eax
  106e82:	89 45 10             	mov    %eax,0x10(%ebp)
  106e85:	eb a4                	jmp    106e2b <my_vsprintf+0x243>
  106e87:	8b 45 10             	mov    0x10(%ebp),%eax
  106e8a:	83 c0 04             	add    $0x4,%eax
  106e8d:	89 45 e0             	mov    %eax,-0x20(%ebp)
  106e90:	8b 45 10             	mov    0x10(%ebp),%eax
  106e93:	8b 38                	mov    (%eax),%edi
  106e95:	83 ec 08             	sub    $0x8,%esp
  106e98:	ff 75 d8             	pushl  -0x28(%ebp)
  106e9b:	57                   	push   %edi
  106e9c:	e8 5b 02 00 00       	call   1070fc <my_strnlen>
  106ea1:	83 c4 10             	add    $0x10,%esp
  106ea4:	f6 45 e4 10          	testb  $0x10,-0x1c(%ebp)
  106ea8:	0f 85 99 01 00 00    	jne    107047 <my_vsprintf+0x45f>
  106eae:	8d 56 ff             	lea    -0x1(%esi),%edx
  106eb1:	39 c6                	cmp    %eax,%esi
  106eb3:	7e 18                	jle    106ecd <my_vsprintf+0x2e5>
  106eb5:	29 c6                	sub    %eax,%esi
  106eb7:	89 f2                	mov    %esi,%edx
  106eb9:	8b 4d dc             	mov    -0x24(%ebp),%ecx
  106ebc:	01 ca                	add    %ecx,%edx
  106ebe:	41                   	inc    %ecx
  106ebf:	c6 41 ff 20          	movb   $0x20,-0x1(%ecx)
  106ec3:	39 ca                	cmp    %ecx,%edx
  106ec5:	75 f7                	jne    106ebe <my_vsprintf+0x2d6>
  106ec7:	89 4d dc             	mov    %ecx,-0x24(%ebp)
  106eca:	8d 50 ff             	lea    -0x1(%eax),%edx
  106ecd:	85 c0                	test   %eax,%eax
  106ecf:	7e 19                	jle    106eea <my_vsprintf+0x302>
  106ed1:	31 c9                	xor    %ecx,%ecx
  106ed3:	89 55 e4             	mov    %edx,-0x1c(%ebp)
  106ed6:	8b 75 dc             	mov    -0x24(%ebp),%esi
  106ed9:	8a 14 0f             	mov    (%edi,%ecx,1),%dl
  106edc:	88 14 0e             	mov    %dl,(%esi,%ecx,1)
  106edf:	41                   	inc    %ecx
  106ee0:	39 c8                	cmp    %ecx,%eax
  106ee2:	75 f2                	jne    106ed6 <my_vsprintf+0x2ee>
  106ee4:	8b 55 e4             	mov    -0x1c(%ebp),%edx
  106ee7:	01 45 dc             	add    %eax,-0x24(%ebp)
  106eea:	39 c2                	cmp    %eax,%edx
  106eec:	0f 8e 64 01 00 00    	jle    107056 <my_vsprintf+0x46e>
  106ef2:	29 c2                	sub    %eax,%edx
  106ef4:	89 d0                	mov    %edx,%eax
  106ef6:	8b 4d dc             	mov    -0x24(%ebp),%ecx
  106ef9:	01 c8                	add    %ecx,%eax
  106efb:	89 ca                	mov    %ecx,%edx
  106efd:	42                   	inc    %edx
  106efe:	c6 42 ff 20          	movb   $0x20,-0x1(%edx)
  106f02:	39 c2                	cmp    %eax,%edx
  106f04:	75 f7                	jne    106efd <my_vsprintf+0x315>
  106f06:	89 55 dc             	mov    %edx,-0x24(%ebp)
  106f09:	8b 45 e0             	mov    -0x20(%ebp),%eax
  106f0c:	89 45 10             	mov    %eax,0x10(%ebp)
  106f0f:	e9 ff fc ff ff       	jmp    106c13 <my_vsprintf+0x2b>
  106f14:	83 fe ff             	cmp    $0xffffffff,%esi
  106f17:	0f 84 44 01 00 00    	je     107061 <my_vsprintf+0x479>
  106f1d:	8b 45 10             	mov    0x10(%ebp),%eax
  106f20:	8d 78 04             	lea    0x4(%eax),%edi
  106f23:	52                   	push   %edx
  106f24:	ff 75 e4             	pushl  -0x1c(%ebp)
  106f27:	ff 75 d8             	pushl  -0x28(%ebp)
  106f2a:	56                   	push   %esi
  106f2b:	b9 10 00 00 00       	mov    $0x10,%ecx
  106f30:	8b 10                	mov    (%eax),%edx
  106f32:	8b 45 dc             	mov    -0x24(%ebp),%eax
  106f35:	e8 16 fa ff ff       	call   106950 <get_number>
  106f3a:	89 45 dc             	mov    %eax,-0x24(%ebp)
  106f3d:	83 c4 10             	add    $0x10,%esp
  106f40:	89 7d 10             	mov    %edi,0x10(%ebp)
  106f43:	e9 cb fc ff ff       	jmp    106c13 <my_vsprintf+0x2b>
  106f48:	b9 08 00 00 00       	mov    $0x8,%ecx
  106f4d:	e9 be fe ff ff       	jmp    106e10 <my_vsprintf+0x228>
  106f52:	8b 45 10             	mov    0x10(%ebp),%eax
  106f55:	8b 00                	mov    (%eax),%eax
  106f57:	8b 55 dc             	mov    -0x24(%ebp),%edx
  106f5a:	2b 55 08             	sub    0x8(%ebp),%edx
  106f5d:	89 10                	mov    %edx,(%eax)
  106f5f:	8b 45 10             	mov    0x10(%ebp),%eax
  106f62:	83 c0 04             	add    $0x4,%eax
  106f65:	89 45 10             	mov    %eax,0x10(%ebp)
  106f68:	e9 a6 fc ff ff       	jmp    106c13 <my_vsprintf+0x2b>
  106f6d:	f6 45 e4 10          	testb  $0x10,-0x1c(%ebp)
  106f71:	0f 85 c9 00 00 00    	jne    107040 <my_vsprintf+0x458>
  106f77:	8d 46 ff             	lea    -0x1(%esi),%eax
  106f7a:	85 c0                	test   %eax,%eax
  106f7c:	7e 15                	jle    106f93 <my_vsprintf+0x3ab>
  106f7e:	8b 4d dc             	mov    -0x24(%ebp),%ecx
  106f81:	01 c8                	add    %ecx,%eax
  106f83:	89 ca                	mov    %ecx,%edx
  106f85:	42                   	inc    %edx
  106f86:	c6 42 ff 20          	movb   $0x20,-0x1(%edx)
  106f8a:	39 c2                	cmp    %eax,%edx
  106f8c:	75 f7                	jne    106f85 <my_vsprintf+0x39d>
  106f8e:	89 55 dc             	mov    %edx,-0x24(%ebp)
  106f91:	31 c0                	xor    %eax,%eax
  106f93:	8b 7d dc             	mov    -0x24(%ebp),%edi
  106f96:	89 f9                	mov    %edi,%ecx
  106f98:	41                   	inc    %ecx
  106f99:	89 4d dc             	mov    %ecx,-0x24(%ebp)
  106f9c:	8b 75 10             	mov    0x10(%ebp),%esi
  106f9f:	8d 4e 04             	lea    0x4(%esi),%ecx
  106fa2:	8b 36                	mov    (%esi),%esi
  106fa4:	89 f2                	mov    %esi,%edx
  106fa6:	88 17                	mov    %dl,(%edi)
  106fa8:	83 f8 01             	cmp    $0x1,%eax
  106fab:	0f 8e 9d 00 00 00    	jle    10704e <my_vsprintf+0x466>
  106fb1:	01 f8                	add    %edi,%eax
  106fb3:	8b 55 dc             	mov    -0x24(%ebp),%edx
  106fb6:	42                   	inc    %edx
  106fb7:	c6 42 ff 20          	movb   $0x20,-0x1(%edx)
  106fbb:	39 c2                	cmp    %eax,%edx
  106fbd:	75 f7                	jne    106fb6 <my_vsprintf+0x3ce>
  106fbf:	89 55 dc             	mov    %edx,-0x24(%ebp)
  106fc2:	89 4d 10             	mov    %ecx,0x10(%ebp)
  106fc5:	e9 49 fc ff ff       	jmp    106c13 <my_vsprintf+0x2b>
  106fca:	83 4d e4 40          	orl    $0x40,-0x1c(%ebp)
  106fce:	b9 10 00 00 00       	mov    $0x10,%ecx
  106fd3:	e9 38 fe ff ff       	jmp    106e10 <my_vsprintf+0x228>
  106fd8:	f6 45 e4 10          	testb  $0x10,-0x1c(%ebp)
  106fdc:	75 3d                	jne    10701b <my_vsprintf+0x433>
  106fde:	8d 46 ff             	lea    -0x1(%esi),%eax
  106fe1:	85 c0                	test   %eax,%eax
  106fe3:	7e 15                	jle    106ffa <my_vsprintf+0x412>
  106fe5:	8b 75 dc             	mov    -0x24(%ebp),%esi
  106fe8:	01 f0                	add    %esi,%eax
  106fea:	89 f2                	mov    %esi,%edx
  106fec:	42                   	inc    %edx
  106fed:	c6 42 ff 20          	movb   $0x20,-0x1(%edx)
  106ff1:	39 c2                	cmp    %eax,%edx
  106ff3:	75 f7                	jne    106fec <my_vsprintf+0x404>
  106ff5:	89 55 dc             	mov    %edx,-0x24(%ebp)
  106ff8:	31 c0                	xor    %eax,%eax
  106ffa:	8b 4d dc             	mov    -0x24(%ebp),%ecx
  106ffd:	8d 51 01             	lea    0x1(%ecx),%edx
  107000:	c6 01 25             	movb   $0x25,(%ecx)
  107003:	83 f8 01             	cmp    $0x1,%eax
  107006:	7e 0b                	jle    107013 <my_vsprintf+0x42b>
  107008:	01 c8                	add    %ecx,%eax
  10700a:	42                   	inc    %edx
  10700b:	c6 42 ff 20          	movb   $0x20,-0x1(%edx)
  10700f:	39 c2                	cmp    %eax,%edx
  107011:	75 f7                	jne    10700a <my_vsprintf+0x422>
  107013:	89 55 dc             	mov    %edx,-0x24(%ebp)
  107016:	e9 f8 fb ff ff       	jmp    106c13 <my_vsprintf+0x2b>
  10701b:	89 f0                	mov    %esi,%eax
  10701d:	eb db                	jmp    106ffa <my_vsprintf+0x412>
  10701f:	8d 78 04             	lea    0x4(%eax),%edi
  107022:	8b 00                	mov    (%eax),%eax
  107024:	0f b7 d0             	movzwl %ax,%edx
  107027:	f6 45 e4 02          	testb  $0x2,-0x1c(%ebp)
  10702b:	74 0b                	je     107038 <my_vsprintf+0x450>
  10702d:	0f bf d0             	movswl %ax,%edx
  107030:	89 7d 10             	mov    %edi,0x10(%ebp)
  107033:	e9 f3 fd ff ff       	jmp    106e2b <my_vsprintf+0x243>
  107038:	89 7d 10             	mov    %edi,0x10(%ebp)
  10703b:	e9 eb fd ff ff       	jmp    106e2b <my_vsprintf+0x243>
  107040:	89 f0                	mov    %esi,%eax
  107042:	e9 4c ff ff ff       	jmp    106f93 <my_vsprintf+0x3ab>
  107047:	89 f2                	mov    %esi,%edx
  107049:	e9 7f fe ff ff       	jmp    106ecd <my_vsprintf+0x2e5>
  10704e:	89 4d 10             	mov    %ecx,0x10(%ebp)
  107051:	e9 bd fb ff ff       	jmp    106c13 <my_vsprintf+0x2b>
  107056:	8b 45 e0             	mov    -0x20(%ebp),%eax
  107059:	89 45 10             	mov    %eax,0x10(%ebp)
  10705c:	e9 b2 fb ff ff       	jmp    106c13 <my_vsprintf+0x2b>
  107061:	83 4d e4 01          	orl    $0x1,-0x1c(%ebp)
  107065:	be 08 00 00 00       	mov    $0x8,%esi
  10706a:	e9 ae fe ff ff       	jmp    106f1d <my_vsprintf+0x335>
  10706f:	8b 45 08             	mov    0x8(%ebp),%eax
  107072:	89 45 dc             	mov    %eax,-0x24(%ebp)
  107075:	31 c0                	xor    %eax,%eax
  107077:	8b 4d dc             	mov    -0x24(%ebp),%ecx
  10707a:	c6 01 00             	movb   $0x0,(%ecx)
  10707d:	8d 65 f4             	lea    -0xc(%ebp),%esp
  107080:	5b                   	pop    %ebx
  107081:	5e                   	pop    %esi
  107082:	5f                   	pop    %edi
  107083:	5d                   	pop    %ebp
  107084:	c3                   	ret    
  107085:	66 90                	xchg   %ax,%ax
  107087:	90                   	nop

00107088 <my_printf>:
  107088:	55                   	push   %ebp
  107089:	89 e5                	mov    %esp,%ebp
  10708b:	57                   	push   %edi
  10708c:	56                   	push   %esi
  10708d:	53                   	push   %ebx
  10708e:	81 ec 10 04 00 00    	sub    $0x410,%esp
  107094:	8d 45 0c             	lea    0xc(%ebp),%eax
  107097:	50                   	push   %eax
  107098:	ff 75 08             	pushl  0x8(%ebp)
  10709b:	8d 9d e8 fb ff ff    	lea    -0x418(%ebp),%ebx
  1070a1:	53                   	push   %ebx
  1070a2:	e8 41 fb ff ff       	call   106be8 <my_vsprintf>
  1070a7:	89 c6                	mov    %eax,%esi
  1070a9:	89 1c 24             	mov    %ebx,(%esp)
  1070ac:	e8 2b 00 00 00       	call   1070dc <my_strlen>
  1070b1:	83 c4 10             	add    $0x10,%esp
  1070b4:	85 c0                	test   %eax,%eax
  1070b6:	74 18                	je     1070d0 <my_printf+0x48>
  1070b8:	8d 3c 03             	lea    (%ebx,%eax,1),%edi
  1070bb:	90                   	nop
  1070bc:	83 ec 0c             	sub    $0xc,%esp
  1070bf:	0f be 03             	movsbl (%ebx),%eax
  1070c2:	50                   	push   %eax
  1070c3:	e8 48 8f ff ff       	call   100010 <_putc>
  1070c8:	43                   	inc    %ebx
  1070c9:	83 c4 10             	add    $0x10,%esp
  1070cc:	39 fb                	cmp    %edi,%ebx
  1070ce:	75 ec                	jne    1070bc <my_printf+0x34>
  1070d0:	89 f0                	mov    %esi,%eax
  1070d2:	8d 65 f4             	lea    -0xc(%ebp),%esp
  1070d5:	5b                   	pop    %ebx
  1070d6:	5e                   	pop    %esi
  1070d7:	5f                   	pop    %edi
  1070d8:	5d                   	pop    %ebp
  1070d9:	c3                   	ret    
  1070da:	66 90                	xchg   %ax,%ax

001070dc <my_strlen>:
  1070dc:	55                   	push   %ebp
  1070dd:	89 e5                	mov    %esp,%ebp
  1070df:	8b 55 08             	mov    0x8(%ebp),%edx
  1070e2:	80 3a 00             	cmpb   $0x0,(%edx)
  1070e5:	74 0f                	je     1070f6 <my_strlen+0x1a>
  1070e7:	89 d0                	mov    %edx,%eax
  1070e9:	8d 76 00             	lea    0x0(%esi),%esi
  1070ec:	40                   	inc    %eax
  1070ed:	80 38 00             	cmpb   $0x0,(%eax)
  1070f0:	75 fa                	jne    1070ec <my_strlen+0x10>
  1070f2:	29 d0                	sub    %edx,%eax
  1070f4:	5d                   	pop    %ebp
  1070f5:	c3                   	ret    
  1070f6:	31 c0                	xor    %eax,%eax
  1070f8:	5d                   	pop    %ebp
  1070f9:	c3                   	ret    
  1070fa:	66 90                	xchg   %ax,%ax

001070fc <my_strnlen>:
  1070fc:	55                   	push   %ebp
  1070fd:	89 e5                	mov    %esp,%ebp
  1070ff:	53                   	push   %ebx
  107100:	8b 55 08             	mov    0x8(%ebp),%edx
  107103:	8b 4d 0c             	mov    0xc(%ebp),%ecx
  107106:	80 3a 00             	cmpb   $0x0,(%edx)
  107109:	74 1a                	je     107125 <my_strnlen+0x29>
  10710b:	89 d3                	mov    %edx,%ebx
  10710d:	85 c9                	test   %ecx,%ecx
  10710f:	75 07                	jne    107118 <my_strnlen+0x1c>
  107111:	eb 12                	jmp    107125 <my_strnlen+0x29>
  107113:	90                   	nop
  107114:	39 c8                	cmp    %ecx,%eax
  107116:	73 0a                	jae    107122 <my_strnlen+0x26>
  107118:	42                   	inc    %edx
  107119:	89 d0                	mov    %edx,%eax
  10711b:	29 d8                	sub    %ebx,%eax
  10711d:	80 3a 00             	cmpb   $0x0,(%edx)
  107120:	75 f2                	jne    107114 <my_strnlen+0x18>
  107122:	5b                   	pop    %ebx
  107123:	5d                   	pop    %ebp
  107124:	c3                   	ret    
  107125:	31 c0                	xor    %eax,%eax
  107127:	eb f9                	jmp    107122 <my_strnlen+0x26>
  107129:	66 90                	xchg   %ax,%ax
  10712b:	90                   	nop

0010712c <my_memset>:
  10712c:	55                   	push   %ebp
  10712d:	89 e5                	mov    %esp,%ebp
  10712f:	53                   	push   %ebx
  107130:	8b 45 08             	mov    0x8(%ebp),%eax
  107133:	8b 4d 10             	mov    0x10(%ebp),%ecx
  107136:	85 c9                	test   %ecx,%ecx
  107138:	74 12                	je     10714c <my_memset+0x20>
  10713a:	8a 5d 0c             	mov    0xc(%ebp),%bl
  10713d:	01 c1                	add    %eax,%ecx
  10713f:	89 c2                	mov    %eax,%edx
  107141:	8d 76 00             	lea    0x0(%esi),%esi
  107144:	42                   	inc    %edx
  107145:	88 5a ff             	mov    %bl,-0x1(%edx)
  107148:	39 ca                	cmp    %ecx,%edx
  10714a:	75 f8                	jne    107144 <my_memset+0x18>
  10714c:	5b                   	pop    %ebx
  10714d:	5d                   	pop    %ebp
  10714e:	c3                   	ret    
  10714f:	90                   	nop

00107150 <my_memcpy>:
  107150:	55                   	push   %ebp
  107151:	89 e5                	mov    %esp,%ebp
  107153:	56                   	push   %esi
  107154:	53                   	push   %ebx
  107155:	8b 45 08             	mov    0x8(%ebp),%eax
  107158:	8b 5d 0c             	mov    0xc(%ebp),%ebx
  10715b:	8b 75 10             	mov    0x10(%ebp),%esi
  10715e:	85 f6                	test   %esi,%esi
  107160:	74 0d                	je     10716f <my_memcpy+0x1f>
  107162:	31 d2                	xor    %edx,%edx
  107164:	8a 0c 13             	mov    (%ebx,%edx,1),%cl
  107167:	88 0c 10             	mov    %cl,(%eax,%edx,1)
  10716a:	42                   	inc    %edx
  10716b:	39 f2                	cmp    %esi,%edx
  10716d:	75 f5                	jne    107164 <my_memcpy+0x14>
  10716f:	5b                   	pop    %ebx
  107170:	5e                   	pop    %esi
  107171:	5d                   	pop    %ebp
  107172:	c3                   	ret    
  107173:	90                   	nop

00107174 <my_memcmp>:
  107174:	55                   	push   %ebp
  107175:	89 e5                	mov    %esp,%ebp
  107177:	57                   	push   %edi
  107178:	56                   	push   %esi
  107179:	53                   	push   %ebx
  10717a:	8b 55 08             	mov    0x8(%ebp),%edx
  10717d:	8b 5d 0c             	mov    0xc(%ebp),%ebx
  107180:	8b 75 10             	mov    0x10(%ebp),%esi
  107183:	85 f6                	test   %esi,%esi
  107185:	74 30                	je     1071b7 <my_memcmp+0x43>
  107187:	0f b6 02             	movzbl (%edx),%eax
  10718a:	0f b6 0b             	movzbl (%ebx),%ecx
  10718d:	29 c8                	sub    %ecx,%eax
  10718f:	75 17                	jne    1071a8 <my_memcmp+0x34>
  107191:	01 d6                	add    %edx,%esi
  107193:	eb 0d                	jmp    1071a2 <my_memcmp+0x2e>
  107195:	8d 76 00             	lea    0x0(%esi),%esi
  107198:	0f b6 0a             	movzbl (%edx),%ecx
  10719b:	0f b6 3b             	movzbl (%ebx),%edi
  10719e:	29 f9                	sub    %edi,%ecx
  1071a0:	75 0e                	jne    1071b0 <my_memcmp+0x3c>
  1071a2:	42                   	inc    %edx
  1071a3:	43                   	inc    %ebx
  1071a4:	39 d6                	cmp    %edx,%esi
  1071a6:	75 f0                	jne    107198 <my_memcmp+0x24>
  1071a8:	5b                   	pop    %ebx
  1071a9:	5e                   	pop    %esi
  1071aa:	5f                   	pop    %edi
  1071ab:	5d                   	pop    %ebp
  1071ac:	c3                   	ret    
  1071ad:	8d 76 00             	lea    0x0(%esi),%esi
  1071b0:	89 c8                	mov    %ecx,%eax
  1071b2:	5b                   	pop    %ebx
  1071b3:	5e                   	pop    %esi
  1071b4:	5f                   	pop    %edi
  1071b5:	5d                   	pop    %ebp
  1071b6:	c3                   	ret    
  1071b7:	31 c0                	xor    %eax,%eax
  1071b9:	eb ed                	jmp    1071a8 <my_memcmp+0x34>
  1071bb:	90                   	nop

001071bc <getdev.part.0>:
  1071bc:	55                   	push   %ebp
  1071bd:	89 e5                	mov    %esp,%ebp
  1071bf:	57                   	push   %edi
  1071c0:	56                   	push   %esi
  1071c1:	53                   	push   %ebx
  1071c2:	83 ec 0c             	sub    $0xc,%esp
  1071c5:	89 c7                	mov    %eax,%edi
  1071c7:	89 d6                	mov    %edx,%esi
  1071c9:	bb 01 00 00 00       	mov    $0x1,%ebx
  1071ce:	eb 01                	jmp    1071d1 <getdev.part.0+0x15>
  1071d0:	43                   	inc    %ebx
  1071d1:	83 ec 0c             	sub    $0xc,%esp
  1071d4:	53                   	push   %ebx
  1071d5:	e8 ca 01 00 00       	call   1073a4 <_device>
  1071da:	83 c4 10             	add    $0x10,%esp
  1071dd:	39 30                	cmp    %esi,(%eax)
  1071df:	75 ef                	jne    1071d0 <getdev.part.0+0x14>
  1071e1:	89 07                	mov    %eax,(%edi)
  1071e3:	8d 65 f4             	lea    -0xc(%ebp),%esp
  1071e6:	5b                   	pop    %ebx
  1071e7:	5e                   	pop    %esi
  1071e8:	5f                   	pop    %edi
  1071e9:	5d                   	pop    %ebp
  1071ea:	c3                   	ret    
  1071eb:	90                   	nop

001071ec <uptime>:
  1071ec:	55                   	push   %ebp
  1071ed:	89 e5                	mov    %esp,%ebp
  1071ef:	83 ec 18             	sub    $0x18,%esp
  1071f2:	a1 70 bf 29 00       	mov    0x29bf70,%eax
  1071f7:	85 c0                	test   %eax,%eax
  1071f9:	74 11                	je     10720c <uptime+0x20>
  1071fb:	52                   	push   %edx
  1071fc:	6a 08                	push   $0x8
  1071fe:	8d 55 f0             	lea    -0x10(%ebp),%edx
  107201:	52                   	push   %edx
  107202:	6a 01                	push   $0x1
  107204:	ff 50 08             	call   *0x8(%eax)
  107207:	8b 45 f4             	mov    -0xc(%ebp),%eax
  10720a:	c9                   	leave  
  10720b:	c3                   	ret    
  10720c:	ba 03 ac 00 00       	mov    $0xac03,%edx
  107211:	b8 70 bf 29 00       	mov    $0x29bf70,%eax
  107216:	e8 a1 ff ff ff       	call   1071bc <getdev.part.0>
  10721b:	eb de                	jmp    1071fb <uptime+0xf>
  10721d:	66 90                	xchg   %ax,%ax
  10721f:	90                   	nop

00107220 <read_key>:
  107220:	55                   	push   %ebp
  107221:	89 e5                	mov    %esp,%ebp
  107223:	83 ec 18             	sub    $0x18,%esp
  107226:	a1 78 bf 29 00       	mov    0x29bf78,%eax
  10722b:	85 c0                	test   %eax,%eax
  10722d:	74 21                	je     107250 <read_key+0x30>
  10722f:	52                   	push   %edx
  107230:	6a 08                	push   $0x8
  107232:	8d 55 f0             	lea    -0x10(%ebp),%edx
  107235:	52                   	push   %edx
  107236:	6a 01                	push   $0x1
  107238:	ff 50 08             	call   *0x8(%eax)
  10723b:	8b 45 f4             	mov    -0xc(%ebp),%eax
  10723e:	83 c4 10             	add    $0x10,%esp
  107241:	8b 4d f0             	mov    -0x10(%ebp),%ecx
  107244:	85 c9                	test   %ecx,%ecx
  107246:	74 03                	je     10724b <read_key+0x2b>
  107248:	80 cc 80             	or     $0x80,%ah
  10724b:	c9                   	leave  
  10724c:	c3                   	ret    
  10724d:	8d 76 00             	lea    0x0(%esi),%esi
  107250:	ba 02 ac 00 00       	mov    $0xac02,%edx
  107255:	b8 78 bf 29 00       	mov    $0x29bf78,%eax
  10725a:	e8 5d ff ff ff       	call   1071bc <getdev.part.0>
  10725f:	eb ce                	jmp    10722f <read_key+0xf>
  107261:	66 90                	xchg   %ax,%ax
  107263:	90                   	nop

00107264 <draw_rect>:
  107264:	55                   	push   %ebp
  107265:	89 e5                	mov    %esp,%ebp
  107267:	83 ec 28             	sub    $0x28,%esp
  10726a:	a1 74 bf 29 00       	mov    0x29bf74,%eax
  10726f:	85 c0                	test   %eax,%eax
  107271:	74 39                	je     1072ac <draw_rect+0x48>
  107273:	8b 55 08             	mov    0x8(%ebp),%edx
  107276:	89 55 e8             	mov    %edx,-0x18(%ebp)
  107279:	8b 55 0c             	mov    0xc(%ebp),%edx
  10727c:	89 55 e0             	mov    %edx,-0x20(%ebp)
  10727f:	8b 55 10             	mov    0x10(%ebp),%edx
  107282:	89 55 e4             	mov    %edx,-0x1c(%ebp)
  107285:	8b 55 14             	mov    0x14(%ebp),%edx
  107288:	89 55 ec             	mov    %edx,-0x14(%ebp)
  10728b:	8b 55 18             	mov    0x18(%ebp),%edx
  10728e:	89 55 f0             	mov    %edx,-0x10(%ebp)
  107291:	c7 45 f4 00 00 00 00 	movl   $0x0,-0xc(%ebp)
  107298:	52                   	push   %edx
  107299:	6a 18                	push   $0x18
  10729b:	8d 55 e0             	lea    -0x20(%ebp),%edx
  10729e:	52                   	push   %edx
  10729f:	6a 02                	push   $0x2
  1072a1:	ff 50 0c             	call   *0xc(%eax)
  1072a4:	83 c4 10             	add    $0x10,%esp
  1072a7:	c9                   	leave  
  1072a8:	c3                   	ret    
  1072a9:	8d 76 00             	lea    0x0(%esi),%esi
  1072ac:	ba 04 ac 00 00       	mov    $0xac04,%edx
  1072b1:	b8 74 bf 29 00       	mov    $0x29bf74,%eax
  1072b6:	e8 01 ff ff ff       	call   1071bc <getdev.part.0>
  1072bb:	eb b6                	jmp    107273 <draw_rect+0xf>
  1072bd:	66 90                	xchg   %ax,%ax
  1072bf:	90                   	nop

001072c0 <draw_sync>:
  1072c0:	55                   	push   %ebp
  1072c1:	89 e5                	mov    %esp,%ebp
  1072c3:	83 ec 28             	sub    $0x28,%esp
  1072c6:	a1 74 bf 29 00       	mov    0x29bf74,%eax
  1072cb:	85 c0                	test   %eax,%eax
  1072cd:	74 3d                	je     10730c <draw_sync+0x4c>
  1072cf:	c7 45 e8 00 00 00 00 	movl   $0x0,-0x18(%ebp)
  1072d6:	c7 45 f0 00 00 00 00 	movl   $0x0,-0x10(%ebp)
  1072dd:	c7 45 ec 00 00 00 00 	movl   $0x0,-0x14(%ebp)
  1072e4:	c7 45 e4 00 00 00 00 	movl   $0x0,-0x1c(%ebp)
  1072eb:	c7 45 e0 00 00 00 00 	movl   $0x0,-0x20(%ebp)
  1072f2:	c7 45 f4 01 00 00 00 	movl   $0x1,-0xc(%ebp)
  1072f9:	52                   	push   %edx
  1072fa:	6a 18                	push   $0x18
  1072fc:	8d 55 e0             	lea    -0x20(%ebp),%edx
  1072ff:	52                   	push   %edx
  107300:	6a 02                	push   $0x2
  107302:	ff 50 0c             	call   *0xc(%eax)
  107305:	83 c4 10             	add    $0x10,%esp
  107308:	c9                   	leave  
  107309:	c3                   	ret    
  10730a:	66 90                	xchg   %ax,%ax
  10730c:	ba 04 ac 00 00       	mov    $0xac04,%edx
  107311:	b8 74 bf 29 00       	mov    $0x29bf74,%eax
  107316:	e8 a1 fe ff ff       	call   1071bc <getdev.part.0>
  10731b:	eb b2                	jmp    1072cf <draw_sync+0xf>
  10731d:	66 90                	xchg   %ax,%ax
  10731f:	90                   	nop

00107320 <screen_width>:
  107320:	55                   	push   %ebp
  107321:	89 e5                	mov    %esp,%ebp
  107323:	83 ec 18             	sub    $0x18,%esp
  107326:	a1 74 bf 29 00       	mov    0x29bf74,%eax
  10732b:	85 c0                	test   %eax,%eax
  10732d:	74 11                	je     107340 <screen_width+0x20>
  10732f:	52                   	push   %edx
  107330:	6a 08                	push   $0x8
  107332:	8d 55 f0             	lea    -0x10(%ebp),%edx
  107335:	52                   	push   %edx
  107336:	6a 01                	push   $0x1
  107338:	ff 50 08             	call   *0x8(%eax)
  10733b:	8b 45 f0             	mov    -0x10(%ebp),%eax
  10733e:	c9                   	leave  
  10733f:	c3                   	ret    
  107340:	ba 04 ac 00 00       	mov    $0xac04,%edx
  107345:	b8 74 bf 29 00       	mov    $0x29bf74,%eax
  10734a:	e8 6d fe ff ff       	call   1071bc <getdev.part.0>
  10734f:	eb de                	jmp    10732f <screen_width+0xf>
  107351:	66 90                	xchg   %ax,%ax
  107353:	90                   	nop

00107354 <screen_height>:
  107354:	55                   	push   %ebp
  107355:	89 e5                	mov    %esp,%ebp
  107357:	83 ec 18             	sub    $0x18,%esp
  10735a:	a1 74 bf 29 00       	mov    0x29bf74,%eax
  10735f:	85 c0                	test   %eax,%eax
  107361:	74 11                	je     107374 <screen_height+0x20>
  107363:	52                   	push   %edx
  107364:	6a 08                	push   $0x8
  107366:	8d 55 f0             	lea    -0x10(%ebp),%edx
  107369:	52                   	push   %edx
  10736a:	6a 01                	push   $0x1
  10736c:	ff 50 08             	call   *0x8(%eax)
  10736f:	8b 45 f4             	mov    -0xc(%ebp),%eax
  107372:	c9                   	leave  
  107373:	c3                   	ret    
  107374:	ba 04 ac 00 00       	mov    $0xac04,%edx
  107379:	b8 74 bf 29 00       	mov    $0x29bf74,%eax
  10737e:	e8 39 fe ff ff       	call   1071bc <getdev.part.0>
  107383:	eb de                	jmp    107363 <screen_height+0xf>
  107385:	66 90                	xchg   %ax,%ax
  107387:	90                   	nop

00107388 <no_write>:
  107388:	55                   	push   %ebp
  107389:	89 e5                	mov    %esp,%ebp
  10738b:	31 c0                	xor    %eax,%eax
  10738d:	5d                   	pop    %ebp
  10738e:	c3                   	ret    
  10738f:	90                   	nop

00107390 <_ioe_init>:
  107390:	55                   	push   %ebp
  107391:	89 e5                	mov    %esp,%ebp
  107393:	83 ec 08             	sub    $0x8,%esp
  107396:	e8 45 01 00 00       	call   1074e0 <vga_init>
  10739b:	e8 94 00 00 00       	call   107434 <timer_init>
  1073a0:	31 c0                	xor    %eax,%eax
  1073a2:	c9                   	leave  
  1073a3:	c3                   	ret    

001073a4 <_device>:
  1073a4:	55                   	push   %ebp
  1073a5:	89 e5                	mov    %esp,%ebp
  1073a7:	8b 45 08             	mov    0x8(%ebp),%eax
  1073aa:	48                   	dec    %eax
  1073ab:	83 f8 02             	cmp    $0x2,%eax
  1073ae:	77 0c                	ja     1073bc <_device+0x18>
  1073b0:	c1 e0 04             	shl    $0x4,%eax
  1073b3:	05 00 1f 11 00       	add    $0x111f00,%eax
  1073b8:	5d                   	pop    %ebp
  1073b9:	c3                   	ret    
  1073ba:	66 90                	xchg   %ax,%ax
  1073bc:	31 c0                	xor    %eax,%eax
  1073be:	5d                   	pop    %ebp
  1073bf:	c3                   	ret    

001073c0 <timer_read>:
  1073c0:	55                   	push   %ebp
  1073c1:	89 e5                	mov    %esp,%ebp
  1073c3:	53                   	push   %ebx
  1073c4:	8b 4d 0c             	mov    0xc(%ebp),%ecx
  1073c7:	83 7d 08 01          	cmpl   $0x1,0x8(%ebp)
  1073cb:	74 3f                	je     10740c <timer_read+0x4c>
  1073cd:	83 7d 08 02          	cmpl   $0x2,0x8(%ebp)
  1073d1:	74 05                	je     1073d8 <timer_read+0x18>
  1073d3:	31 c0                	xor    %eax,%eax
  1073d5:	5b                   	pop    %ebx
  1073d6:	5d                   	pop    %ebp
  1073d7:	c3                   	ret    
  1073d8:	c7 41 14 00 00 00 00 	movl   $0x0,0x14(%ecx)
  1073df:	c7 41 10 00 00 00 00 	movl   $0x0,0x10(%ecx)
  1073e6:	c7 41 0c 00 00 00 00 	movl   $0x0,0xc(%ecx)
  1073ed:	c7 41 08 00 00 00 00 	movl   $0x0,0x8(%ecx)
  1073f4:	c7 41 04 00 00 00 00 	movl   $0x0,0x4(%ecx)
  1073fb:	c7 01 e2 07 00 00    	movl   $0x7e2,(%ecx)
  107401:	b8 18 00 00 00       	mov    $0x18,%eax
  107406:	5b                   	pop    %ebx
  107407:	5d                   	pop    %ebp
  107408:	c3                   	ret    
  107409:	8d 76 00             	lea    0x0(%esi),%esi
  10740c:	8b 59 04             	mov    0x4(%ecx),%ebx
  10740f:	ba 48 00 00 00       	mov    $0x48,%edx
  107414:	ed                   	in     (%dx),%eax
  107415:	2b 05 24 d4 2e 00    	sub    0x2ed424,%eax
  10741b:	89 41 04             	mov    %eax,0x4(%ecx)
  10741e:	39 c3                	cmp    %eax,%ebx
  107420:	76 0a                	jbe    10742c <timer_read+0x6c>
  107422:	ff 01                	incl   (%ecx)
  107424:	b8 08 00 00 00       	mov    $0x8,%eax
  107429:	5b                   	pop    %ebx
  10742a:	5d                   	pop    %ebp
  10742b:	c3                   	ret    
  10742c:	b8 08 00 00 00       	mov    $0x8,%eax
  107431:	5b                   	pop    %ebx
  107432:	5d                   	pop    %ebp
  107433:	c3                   	ret    

00107434 <timer_init>:
  107434:	55                   	push   %ebp
  107435:	89 e5                	mov    %esp,%ebp
  107437:	ba 48 00 00 00       	mov    $0x48,%edx
  10743c:	ed                   	in     (%dx),%eax
  10743d:	a3 24 d4 2e 00       	mov    %eax,0x2ed424
  107442:	5d                   	pop    %ebp
  107443:	c3                   	ret    

00107444 <video_read>:
  107444:	55                   	push   %ebp
  107445:	89 e5                	mov    %esp,%ebp
  107447:	8b 4d 0c             	mov    0xc(%ebp),%ecx
  10744a:	83 7d 08 01          	cmpl   $0x1,0x8(%ebp)
  10744e:	75 18                	jne    107468 <video_read+0x24>
  107450:	ba 00 01 00 00       	mov    $0x100,%edx
  107455:	ed                   	in     (%dx),%eax
  107456:	0f b7 d0             	movzwl %ax,%edx
  107459:	89 51 04             	mov    %edx,0x4(%ecx)
  10745c:	c1 e8 10             	shr    $0x10,%eax
  10745f:	89 01                	mov    %eax,(%ecx)
  107461:	b8 08 00 00 00       	mov    $0x8,%eax
  107466:	5d                   	pop    %ebp
  107467:	c3                   	ret    
  107468:	31 c0                	xor    %eax,%eax
  10746a:	5d                   	pop    %ebp
  10746b:	c3                   	ret    

0010746c <video_write>:
  10746c:	55                   	push   %ebp
  10746d:	89 e5                	mov    %esp,%ebp
  10746f:	57                   	push   %edi
  107470:	56                   	push   %esi
  107471:	53                   	push   %ebx
  107472:	83 ec 1c             	sub    $0x1c,%esp
  107475:	8b 5d 0c             	mov    0xc(%ebp),%ebx
  107478:	83 7d 08 02          	cmpl   $0x2,0x8(%ebp)
  10747c:	74 0a                	je     107488 <video_write+0x1c>
  10747e:	31 c0                	xor    %eax,%eax
  107480:	83 c4 1c             	add    $0x1c,%esp
  107483:	5b                   	pop    %ebx
  107484:	5e                   	pop    %esi
  107485:	5f                   	pop    %edi
  107486:	5d                   	pop    %ebp
  107487:	c3                   	ret    
  107488:	e8 93 fe ff ff       	call   107320 <screen_width>
  10748d:	89 45 e4             	mov    %eax,-0x1c(%ebp)
  107490:	8b 43 10             	mov    0x10(%ebx),%eax
  107493:	85 c0                	test   %eax,%eax
  107495:	7e 3b                	jle    1074d2 <video_write+0x66>
  107497:	31 c9                	xor    %ecx,%ecx
  107499:	8b 43 0c             	mov    0xc(%ebx),%eax
  10749c:	85 c0                	test   %eax,%eax
  10749e:	7e 2c                	jle    1074cc <video_write+0x60>
  1074a0:	8b 7b 08             	mov    0x8(%ebx),%edi
  1074a3:	31 d2                	xor    %edx,%edx
  1074a5:	8d 76 00             	lea    0x0(%esi),%esi
  1074a8:	0f af c1             	imul   %ecx,%eax
  1074ab:	01 d0                	add    %edx,%eax
  1074ad:	8b 34 87             	mov    (%edi,%eax,4),%esi
  1074b0:	8b 03                	mov    (%ebx),%eax
  1074b2:	01 c8                	add    %ecx,%eax
  1074b4:	0f af 45 e4          	imul   -0x1c(%ebp),%eax
  1074b8:	01 d0                	add    %edx,%eax
  1074ba:	03 43 04             	add    0x4(%ebx),%eax
  1074bd:	89 34 85 00 00 04 00 	mov    %esi,0x40000(,%eax,4)
  1074c4:	42                   	inc    %edx
  1074c5:	8b 43 0c             	mov    0xc(%ebx),%eax
  1074c8:	39 d0                	cmp    %edx,%eax
  1074ca:	7f dc                	jg     1074a8 <video_write+0x3c>
  1074cc:	41                   	inc    %ecx
  1074cd:	39 4b 10             	cmp    %ecx,0x10(%ebx)
  1074d0:	7f ca                	jg     10749c <video_write+0x30>
  1074d2:	b8 18 00 00 00       	mov    $0x18,%eax
  1074d7:	83 c4 1c             	add    $0x1c,%esp
  1074da:	5b                   	pop    %ebx
  1074db:	5e                   	pop    %esi
  1074dc:	5f                   	pop    %edi
  1074dd:	5d                   	pop    %ebp
  1074de:	c3                   	ret    
  1074df:	90                   	nop

001074e0 <vga_init>:
  1074e0:	55                   	push   %ebp
  1074e1:	89 e5                	mov    %esp,%ebp
  1074e3:	5d                   	pop    %ebp
  1074e4:	c3                   	ret    
  1074e5:	66 90                	xchg   %ax,%ax
  1074e7:	90                   	nop

001074e8 <input_read>:
  1074e8:	55                   	push   %ebp
  1074e9:	89 e5                	mov    %esp,%ebp
  1074eb:	8b 4d 0c             	mov    0xc(%ebp),%ecx
  1074ee:	83 7d 08 01          	cmpl   $0x1,0x8(%ebp)
  1074f2:	75 30                	jne    107524 <input_read+0x3c>
  1074f4:	ba 60 00 00 00       	mov    $0x60,%edx
  1074f9:	ed                   	in     (%dx),%eax
  1074fa:	f6 c4 80             	test   $0x80,%ah
  1074fd:	74 15                	je     107514 <input_read+0x2c>
  1074ff:	80 f4 80             	xor    $0x80,%ah
  107502:	89 41 04             	mov    %eax,0x4(%ecx)
  107505:	c7 01 01 00 00 00    	movl   $0x1,(%ecx)
  10750b:	b8 08 00 00 00       	mov    $0x8,%eax
  107510:	5d                   	pop    %ebp
  107511:	c3                   	ret    
  107512:	66 90                	xchg   %ax,%ax
  107514:	89 41 04             	mov    %eax,0x4(%ecx)
  107517:	c7 01 00 00 00 00    	movl   $0x0,(%ecx)
  10751d:	b8 08 00 00 00       	mov    $0x8,%eax
  107522:	5d                   	pop    %ebp
  107523:	c3                   	ret    
  107524:	31 c0                	xor    %eax,%eax
  107526:	5d                   	pop    %ebp
  107527:	c3                   	ret    
